	.cpu arm920t
	.eabi_attribute 20, 1
	.eabi_attribute 21, 1
	.eabi_attribute 23, 3
	.eabi_attribute 24, 1
	.eabi_attribute 25, 1
	.eabi_attribute 26, 1
	.eabi_attribute 30, 6
	.eabi_attribute 34, 0
	.eabi_attribute 18, 4
	.file	"hwi.c"
	.text
.Ltext0:
	.cfi_sections	.debug_frame
	.align	2
	.syntax unified
	.arm
	.fpu softvfp
	.type	scheduleTask, %function
scheduleTask:
.LFB1:
	.file 1 "src/kernel/scheduler.h"
	.loc 1 35 0
	.cfi_startproc
	@ Function supports interworking.
	@ args = 0, pretend = 0, frame = 8
	@ frame_needed = 1, uses_anonymous_args = 0
	@ link register save eliminated.
	str	fp, [sp, #-4]!
	.cfi_def_cfa_offset 4
	.cfi_offset 11, -4
	add	fp, sp, #0
	.cfi_def_cfa_register 11
	sub	sp, sp, #12
	str	r0, [fp, #-8]
	str	r1, [fp, #-12]
	.loc 1 36 0
	ldr	r3, [fp, #-8]
	ldr	r2, [r3, #288]
	ldr	r3, [fp, #-12]
	ldr	r3, [r3, #24]
	lsl	r3, r3, #2
	add	r3, r2, r3
	ldr	r3, [r3, #4]
	ldr	r2, [r3]
	ldr	r3, [fp, #-12]
	str	r2, [r3, #20]
	.loc 1 37 0
	ldr	r3, [fp, #-8]
	ldr	r2, [r3, #288]
	ldr	r3, [fp, #-12]
	ldr	r3, [r3, #24]
	lsl	r3, r3, #2
	add	r3, r2, r3
	ldr	r3, [r3, #4]
	ldr	r2, [fp, #-12]
	str	r2, [r3]
	.loc 1 38 0
	nop
	add	sp, fp, #0
	.cfi_def_cfa_register 13
	@ sp needed
	ldr	fp, [sp], #4
	.cfi_restore 11
	.cfi_def_cfa_offset 0
	bx	lr
	.cfi_endproc
.LFE1:
	.size	scheduleTask, .-scheduleTask
	.align	2
	.syntax unified
	.arm
	.fpu softvfp
	.type	unblockTask, %function
unblockTask:
.LFB3:
	.loc 1 86 0
	.cfi_startproc
	@ Function supports interworking.
	@ args = 0, pretend = 0, frame = 8
	@ frame_needed = 1, uses_anonymous_args = 0
	push	{fp, lr}
	.cfi_def_cfa_offset 8
	.cfi_offset 11, -8
	.cfi_offset 14, -4
	add	fp, sp, #4
	.cfi_def_cfa 11, 4
	sub	sp, sp, #8
	str	r0, [fp, #-8]
	str	r1, [fp, #-12]
	.loc 1 87 0
	ldr	r3, [fp, #-12]
	ldr	r3, [r3, #20]
	cmp	r3, #1
	bne	.L3
	.loc 1 88 0
	ldr	r1, [fp, #-12]
	ldr	r0, [fp, #-8]
	bl	scheduleTask(PLT)
.L3:
	.loc 1 89 0
	ldr	r3, [fp, #-12]
	mov	r2, #0
	strb	r2, [r3, #72]
	.loc 1 90 0
	nop
	sub	sp, fp, #4
	.cfi_def_cfa 13, 8
	@ sp needed
	pop	{fp, lr}
	.cfi_restore 14
	.cfi_restore 11
	.cfi_def_cfa_offset 0
	bx	lr
	.cfi_endproc
.LFE3:
	.size	unblockTask, .-unblockTask
	.bss
	.align	2
scheduler:
	.space	4
	.size	scheduler, 4
	.align	2
event_blocks:
	.space	1008
	.size	event_blocks, 1008
	.text
	.align	2
	.global	initEventBlocks
	.syntax unified
	.arm
	.fpu softvfp
	.type	initEventBlocks, %function
initEventBlocks:
.LFB6:
	.file 2 "src/kernel/hwi.c"
	.loc 2 15 0
	.cfi_startproc
	@ Function supports interworking.
	@ args = 0, pretend = 0, frame = 16
	@ frame_needed = 1, uses_anonymous_args = 0
	@ link register save eliminated.
	str	fp, [sp, #-4]!
	.cfi_def_cfa_offset 4
	.cfi_offset 11, -4
	add	fp, sp, #0
	.cfi_def_cfa_register 11
	sub	sp, sp, #20
	str	r0, [fp, #-16]
	.loc 2 17 0
	ldr	r3, .L7
.LPIC0:
	add	r3, pc, r3
	ldr	r2, [fp, #-16]
	str	r2, [r3]
	.loc 2 18 0
	mov	r3, #0
	str	r3, [fp, #-8]
	b	.L5
.L6:
	.loc 2 19 0 discriminator 3
	ldr	r3, .L7+4
.LPIC1:
	add	r3, pc, r3
	ldr	r2, [fp, #-8]
	mov	r1, #0
	str	r1, [r3, r2, lsl #4]
	.loc 2 20 0 discriminator 3
	ldr	r2, .L7+8
.LPIC2:
	add	r2, pc, r2
	ldr	r3, [fp, #-8]
	lsl	r3, r3, #4
	add	r3, r2, r3
	mov	r2, #0
	str	r2, [r3, #4]
	.loc 2 18 0 discriminator 3
	ldr	r3, [fp, #-8]
	add	r3, r3, #1
	str	r3, [fp, #-8]
.L5:
	.loc 2 18 0 is_stmt 0 discriminator 1
	ldr	r3, [fp, #-8]
	cmp	r3, #62
	ble	.L6
	.loc 2 22 0 is_stmt 1
	nop
	add	sp, fp, #0
	.cfi_def_cfa_register 13
	@ sp needed
	ldr	fp, [sp], #4
	.cfi_restore 11
	.cfi_def_cfa_offset 0
	bx	lr
.L8:
	.align	2
.L7:
	.word	scheduler-(.LPIC0+8)
	.word	event_blocks-(.LPIC1+8)
	.word	event_blocks-(.LPIC2+8)
	.cfi_endproc
.LFE6:
	.size	initEventBlocks, .-initEventBlocks
	.align	2
	.syntax unified
	.arm
	.fpu softvfp
	.type	enableEventInterrupt, %function
enableEventInterrupt:
.LFB7:
	.loc 2 25 0
	.cfi_startproc
	@ Function supports interworking.
	@ args = 0, pretend = 0, frame = 8
	@ frame_needed = 1, uses_anonymous_args = 0
	@ link register save eliminated.
	str	fp, [sp, #-4]!
	.cfi_def_cfa_offset 4
	.cfi_offset 11, -4
	add	fp, sp, #0
	.cfi_def_cfa_register 11
	sub	sp, sp, #12
	mov	r3, r0
	strb	r3, [fp, #-5]
	.loc 2 26 0
	ldrb	r3, [fp, #-5]	@ zero_extendqisi2
	cmp	r3, #31
	bls	.L10
	.loc 2 27 0
	ldr	r1, .L13
	ldr	r3, .L13
	ldr	r2, [r3]
	ldrb	r3, [fp, #-5]	@ zero_extendqisi2
	sub	r3, r3, #32
	mov	r0, #1
	lsl	r3, r0, r3
	orr	r3, r2, r3
	str	r3, [r1]
	.loc 2 30 0
	b	.L12
.L10:
	.loc 2 29 0
	ldr	r1, .L13+4
	ldr	r3, .L13+4
	ldr	r2, [r3]
	ldrb	r3, [fp, #-5]	@ zero_extendqisi2
	mov	r0, #1
	lsl	r3, r0, r3
	orr	r3, r2, r3
	str	r3, [r1]
.L12:
	.loc 2 30 0
	nop
	add	sp, fp, #0
	.cfi_def_cfa_register 13
	@ sp needed
	ldr	fp, [sp], #4
	.cfi_restore 11
	.cfi_def_cfa_offset 0
	bx	lr
.L14:
	.align	2
.L13:
	.word	-2146697200
	.word	-2146762736
	.cfi_endproc
.LFE7:
	.size	enableEventInterrupt, .-enableEventInterrupt
	.align	2
	.syntax unified
	.arm
	.fpu softvfp
	.type	disableEventInterrupt, %function
disableEventInterrupt:
.LFB8:
	.loc 2 33 0
	.cfi_startproc
	@ Function supports interworking.
	@ args = 0, pretend = 0, frame = 8
	@ frame_needed = 1, uses_anonymous_args = 0
	@ link register save eliminated.
	str	fp, [sp, #-4]!
	.cfi_def_cfa_offset 4
	.cfi_offset 11, -4
	add	fp, sp, #0
	.cfi_def_cfa_register 11
	sub	sp, sp, #12
	mov	r3, r0
	strb	r3, [fp, #-5]
	.loc 2 34 0
	ldrb	r3, [fp, #-5]	@ zero_extendqisi2
	cmp	r3, #31
	bls	.L16
	.loc 2 35 0
	ldr	r1, .L19
	ldr	r3, .L19
	ldr	r2, [r3]
	ldrb	r3, [fp, #-5]	@ zero_extendqisi2
	sub	r3, r3, #32
	mov	r0, #1
	lsl	r3, r0, r3
	orr	r3, r2, r3
	str	r3, [r1]
	.loc 2 38 0
	b	.L18
.L16:
	.loc 2 37 0
	ldr	r1, .L19+4
	ldr	r3, .L19+4
	ldr	r2, [r3]
	ldrb	r3, [fp, #-5]	@ zero_extendqisi2
	mov	r0, #1
	lsl	r3, r0, r3
	orr	r3, r2, r3
	str	r3, [r1]
.L18:
	.loc 2 38 0
	nop
	add	sp, fp, #0
	.cfi_def_cfa_register 13
	@ sp needed
	ldr	fp, [sp], #4
	.cfi_restore 11
	.cfi_def_cfa_offset 0
	bx	lr
.L20:
	.align	2
.L19:
	.word	-2146697196
	.word	-2146762732
	.cfi_endproc
.LFE8:
	.size	disableEventInterrupt, .-disableEventInterrupt
	.align	2
	.syntax unified
	.arm
	.fpu softvfp
	.type	handleEvent, %function
handleEvent:
.LFB9:
	.loc 2 41 0
	.cfi_startproc
	@ Function supports interworking.
	@ args = 0, pretend = 0, frame = 8
	@ frame_needed = 1, uses_anonymous_args = 0
	push	{fp, lr}
	.cfi_def_cfa_offset 8
	.cfi_offset 11, -8
	.cfi_offset 14, -4
	add	fp, sp, #4
	.cfi_def_cfa 11, 4
	sub	sp, sp, #8
	str	r0, [fp, #-8]
	.loc 2 42 0
	ldr	r3, .L22
.LPIC3:
	add	r3, pc, r3
	ldr	r0, [r3]
	ldr	r3, .L22+4
.LPIC4:
	add	r3, pc, r3
	ldr	r2, [fp, #-8]
	ldr	r3, [r3, r2, lsl #4]
	mov	r1, r3
	bl	unblockTask(PLT)
	.loc 2 43 0
	ldr	r3, [fp, #-8]
	and	r3, r3, #255
	mov	r0, r3
	bl	disableEventInterrupt(PLT)
	.loc 2 44 0
	nop
	sub	sp, fp, #4
	.cfi_def_cfa 13, 8
	@ sp needed
	pop	{fp, lr}
	.cfi_restore 14
	.cfi_restore 11
	.cfi_def_cfa_offset 0
	bx	lr
.L23:
	.align	2
.L22:
	.word	scheduler-(.LPIC3+8)
	.word	event_blocks-(.LPIC4+8)
	.cfi_endproc
.LFE9:
	.size	handleEvent, .-handleEvent
	.global	__ctzsi2
	.align	2
	.global	EnterHWI
	.syntax unified
	.arm
	.fpu softvfp
	.type	EnterHWI, %function
EnterHWI:
.LFB10:
	.loc 2 47 0
	.cfi_startproc
	@ Interrupt Service Routine.
	@ args = 0, pretend = 0, frame = 8
	@ frame_needed = 1, uses_anonymous_args = 0
	sub	lr, lr, #4
	push	{r0, r1, r2, r3, fp, ip, lr}
	.cfi_def_cfa_offset 28
	.cfi_offset 0, -28
	.cfi_offset 1, -24
	.cfi_offset 2, -20
	.cfi_offset 3, -16
	.cfi_offset 11, -12
	.cfi_offset 12, -8
	.cfi_offset 14, -4
	add	fp, sp, #24
	.cfi_def_cfa 11, 4
	sub	sp, sp, #12
	.loc 2 49 0
	b	.L25
.L26:
	.loc 2 50 0
	ldr	r3, [fp, #-32]
	mov	r0, r3
	bl	__ctzsi2(PLT)
.LVL0:
	mov	r3, r0
	mov	r0, r3
	bl	handleEvent(PLT)
.L25:
	.loc 2 49 0
	ldr	r3, .L29
	ldr	r3, [r3]
	str	r3, [fp, #-32]
	cmp	r3, #0
	bne	.L26
	.loc 2 51 0
	b	.L27
.L28:
	.loc 2 52 0
	ldr	r3, [fp, #-32]
	mov	r0, r3
	bl	__ctzsi2(PLT)
.LVL1:
	mov	r3, r0
	add	r3, r3, #32
	mov	r0, r3
	bl	handleEvent(PLT)
.L27:
	.loc 2 51 0
	ldr	r3, .L29+4
	ldr	r3, [r3]
	str	r3, [fp, #-32]
	cmp	r3, #0
	bne	.L28
	.loc 2 53 0
	nop
	sub	sp, fp, #24
	.cfi_def_cfa 13, 28
	@ sp needed
	ldmfd	sp!, {r0, r1, r2, r3, fp, ip, pc}^
.L30:
	.align	2
.L29:
	.word	-2146762752
	.word	-2146697216
	.cfi_endproc
.LFE10:
	.size	EnterHWI, .-EnterHWI
	.align	2
	.global	addAwait
	.syntax unified
	.arm
	.fpu softvfp
	.type	addAwait, %function
addAwait:
.LFB11:
	.loc 2 56 0
	.cfi_startproc
	@ Function supports interworking.
	@ args = 0, pretend = 0, frame = 8
	@ frame_needed = 1, uses_anonymous_args = 0
	push	{fp, lr}
	.cfi_def_cfa_offset 8
	.cfi_offset 11, -8
	.cfi_offset 14, -4
	add	fp, sp, #4
	.cfi_def_cfa 11, 4
	sub	sp, sp, #8
	mov	r3, r0
	str	r1, [fp, #-12]
	strb	r3, [fp, #-5]
	.loc 2 58 0
	ldrb	r2, [fp, #-5]	@ zero_extendqisi2
	ldr	r3, .L32
.LPIC5:
	add	r3, pc, r3
	ldr	r1, [fp, #-12]
	str	r1, [r3, r2, lsl #4]
	.loc 2 59 0
	ldrb	r3, [fp, #-5]	@ zero_extendqisi2
	ldr	r2, .L32+4
.LPIC6:
	add	r2, pc, r2
	lsl	r3, r3, #4
	add	r3, r2, r3
	mov	r2, #0
	str	r2, [r3, #4]
	.loc 2 60 0
	ldrb	r3, [fp, #-5]	@ zero_extendqisi2
	mov	r0, r3
	bl	enableEventInterrupt(PLT)
	.loc 2 61 0
	nop
	sub	sp, fp, #4
	.cfi_def_cfa 13, 8
	@ sp needed
	pop	{fp, lr}
	.cfi_restore 14
	.cfi_restore 11
	.cfi_def_cfa_offset 0
	bx	lr
.L33:
	.align	2
.L32:
	.word	event_blocks-(.LPIC5+8)
	.word	event_blocks-(.LPIC6+8)
	.cfi_endproc
.LFE11:
	.size	addAwait, .-addAwait
	.align	2
	.global	addTransmit
	.syntax unified
	.arm
	.fpu softvfp
	.type	addTransmit, %function
addTransmit:
.LFB12:
	.loc 2 64 0
	.cfi_startproc
	@ Function supports interworking.
	@ args = 0, pretend = 0, frame = 16
	@ frame_needed = 1, uses_anonymous_args = 0
	push	{fp, lr}
	.cfi_def_cfa_offset 8
	.cfi_offset 11, -8
	.cfi_offset 14, -4
	add	fp, sp, #4
	.cfi_def_cfa 11, 4
	sub	sp, sp, #16
	str	r1, [fp, #-12]
	str	r2, [fp, #-16]
	str	r3, [fp, #-20]
	mov	r3, r0
	strb	r3, [fp, #-5]
	.loc 2 65 0
	ldrb	r2, [fp, #-5]	@ zero_extendqisi2
	ldr	r3, .L35
.LPIC7:
	add	r3, pc, r3
	ldr	r1, [fp, #-12]
	str	r1, [r3, r2, lsl #4]
	.loc 2 66 0
	ldrb	r3, [fp, #-5]	@ zero_extendqisi2
	ldr	r2, .L35+4
.LPIC8:
	add	r2, pc, r2
	lsl	r3, r3, #4
	add	r3, r2, r3
	ldr	r2, [fp, #-20]
	str	r2, [r3, #4]
	.loc 2 67 0
	ldrb	r3, [fp, #-5]	@ zero_extendqisi2
	ldr	r2, .L35+8
.LPIC9:
	add	r2, pc, r2
	lsl	r3, r3, #4
	add	r3, r2, r3
	ldr	r2, [fp, #-16]
	str	r2, [r3, #8]
	.loc 2 68 0
	ldrb	r3, [fp, #-5]	@ zero_extendqisi2
	ldr	r2, .L35+12
.LPIC10:
	add	r2, pc, r2
	lsl	r3, r3, #4
	add	r3, r2, r3
	mov	r2, #1
	str	r2, [r3, #12]
	.loc 2 69 0
	ldrb	r3, [fp, #-5]	@ zero_extendqisi2
	mov	r0, r3
	bl	enableEventInterrupt(PLT)
	.loc 2 70 0
	nop
	sub	sp, fp, #4
	.cfi_def_cfa 13, 8
	@ sp needed
	pop	{fp, lr}
	.cfi_restore 14
	.cfi_restore 11
	.cfi_def_cfa_offset 0
	bx	lr
.L36:
	.align	2
.L35:
	.word	event_blocks-(.LPIC7+8)
	.word	event_blocks-(.LPIC8+8)
	.word	event_blocks-(.LPIC9+8)
	.word	event_blocks-(.LPIC10+8)
	.cfi_endproc
.LFE12:
	.size	addTransmit, .-addTransmit
	.align	2
	.global	addReceive
	.syntax unified
	.arm
	.fpu softvfp
	.type	addReceive, %function
addReceive:
.LFB13:
	.loc 2 73 0
	.cfi_startproc
	@ Function supports interworking.
	@ args = 0, pretend = 0, frame = 16
	@ frame_needed = 1, uses_anonymous_args = 0
	push	{fp, lr}
	.cfi_def_cfa_offset 8
	.cfi_offset 11, -8
	.cfi_offset 14, -4
	add	fp, sp, #4
	.cfi_def_cfa 11, 4
	sub	sp, sp, #16
	mov	r3, r0
	str	r1, [fp, #-12]
	str	r2, [fp, #-16]
	strb	r3, [fp, #-5]
	.loc 2 74 0
	ldrb	r2, [fp, #-5]	@ zero_extendqisi2
	ldr	r3, .L38
.LPIC11:
	add	r3, pc, r3
	ldr	r1, [fp, #-12]
	str	r1, [r3, r2, lsl #4]
	.loc 2 75 0
	ldrb	r3, [fp, #-5]	@ zero_extendqisi2
	ldr	r2, .L38+4
.LPIC12:
	add	r2, pc, r2
	lsl	r3, r3, #4
	add	r3, r2, r3
	ldr	r2, [fp, #-16]
	str	r2, [r3, #4]
	.loc 2 76 0
	ldrb	r3, [fp, #-5]	@ zero_extendqisi2
	ldr	r2, .L38+8
.LPIC13:
	add	r2, pc, r2
	lsl	r3, r3, #4
	add	r3, r2, r3
	mov	r2, #0
	str	r2, [r3, #12]
	.loc 2 77 0
	ldrb	r3, [fp, #-5]	@ zero_extendqisi2
	mov	r0, r3
	bl	enableEventInterrupt(PLT)
	.loc 2 78 0
	nop
	sub	sp, fp, #4
	.cfi_def_cfa 13, 8
	@ sp needed
	pop	{fp, lr}
	.cfi_restore 14
	.cfi_restore 11
	.cfi_def_cfa_offset 0
	bx	lr
.L39:
	.align	2
.L38:
	.word	event_blocks-(.LPIC11+8)
	.word	event_blocks-(.LPIC12+8)
	.word	event_blocks-(.LPIC13+8)
	.cfi_endproc
.LFE13:
	.size	addReceive, .-addReceive
.Letext0:
	.file 3 "src/util/data/buffer.h"
	.file 4 "src/kernel/task.h"
	.file 5 "src/syscall.h"