	.cpu arm920t
	.eabi_attribute 20, 1
	.eabi_attribute 21, 1
	.eabi_attribute 23, 3
	.eabi_attribute 24, 1
	.eabi_attribute 25, 1
	.eabi_attribute 26, 1
	.eabi_attribute 30, 6
	.eabi_attribute 34, 0
	.eabi_attribute 18, 4
	.file	"path_finder.c"
	.text
.Ltext0:
	.cfi_sections	.debug_frame
	.align	2
	.syntax unified
	.arm
	.fpu softvfp
	.type	pqInit, %function
pqInit:
.LFB0:
	.file 1 "src/util/data/pq.h"
	.loc 1 24 0
	.cfi_startproc
	@ Function supports interworking.
	@ args = 0, pretend = 0, frame = 8
	@ frame_needed = 1, uses_anonymous_args = 0
	@ link register save eliminated.
	str	fp, [sp, #-4]!
	.cfi_def_cfa_offset 4
	.cfi_offset 11, -4
	add	fp, sp, #0
	.cfi_def_cfa_register 11
	sub	sp, sp, #12
	str	r0, [fp, #-8]
	.loc 1 24 0
	ldr	r3, [fp, #-8]
	mov	r2, #0
	str	r2, [r3]
	nop
	add	sp, fp, #0
	.cfi_def_cfa_register 13
	@ sp needed
	ldr	fp, [sp], #4
	.cfi_restore 11
	.cfi_def_cfa_offset 0
	bx	lr
	.cfi_endproc
.LFE0:
	.size	pqInit, .-pqInit
	.align	2
	.syntax unified
	.arm
	.fpu softvfp
	.type	pqSize, %function
pqSize:
.LFB1:
	.loc 1 35 0
	.cfi_startproc
	@ Function supports interworking.
	@ args = 0, pretend = 0, frame = 8
	@ frame_needed = 1, uses_anonymous_args = 0
	@ link register save eliminated.
	str	fp, [sp, #-4]!
	.cfi_def_cfa_offset 4
	.cfi_offset 11, -4
	add	fp, sp, #0
	.cfi_def_cfa_register 11
	sub	sp, sp, #12
	str	r0, [fp, #-8]
	.loc 1 35 0
	ldr	r3, [fp, #-8]
	ldr	r3, [r3]
	mov	r0, r3
	add	sp, fp, #0
	.cfi_def_cfa_register 13
	@ sp needed
	ldr	fp, [sp], #4
	.cfi_restore 11
	.cfi_def_cfa_offset 0
	bx	lr
	.cfi_endproc
.LFE1:
	.size	pqSize, .-pqSize
	.align	2
	.syntax unified
	.arm
	.fpu softvfp
	.type	pqGetMin, %function
pqGetMin:
.LFB2:
	.loc 1 45 0
	.cfi_startproc
	@ Function supports interworking.
	@ args = 0, pretend = 0, frame = 8
	@ frame_needed = 1, uses_anonymous_args = 0
	@ link register save eliminated.
	str	fp, [sp, #-4]!
	.cfi_def_cfa_offset 4
	.cfi_offset 11, -4
	add	fp, sp, #0
	.cfi_def_cfa_register 11
	sub	sp, sp, #12
	str	r0, [fp, #-8]
	.loc 1 45 0
	ldr	r3, [fp, #-8]
	ldr	r3, [r3, #8]
	mov	r0, r3
	add	sp, fp, #0
	.cfi_def_cfa_register 13
	@ sp needed
	ldr	fp, [sp], #4
	.cfi_restore 11
	.cfi_def_cfa_offset 0
	bx	lr
	.cfi_endproc
.LFE2:
	.size	pqGetMin, .-pqGetMin
	.align	2
	.syntax unified
	.arm
	.fpu softvfp
	.type	pqGetMinPriority, %function
pqGetMinPriority:
.LFB3:
	.loc 1 55 0
	.cfi_startproc
	@ Function supports interworking.
	@ args = 0, pretend = 0, frame = 8
	@ frame_needed = 1, uses_anonymous_args = 0
	@ link register save eliminated.
	str	fp, [sp, #-4]!
	.cfi_def_cfa_offset 4
	.cfi_offset 11, -4
	add	fp, sp, #0
	.cfi_def_cfa_register 11
	sub	sp, sp, #12
	str	r0, [fp, #-8]
	.loc 1 55 0
	ldr	r3, [fp, #-8]
	ldr	r3, [r3, #4]
	mov	r0, r3
	add	sp, fp, #0
	.cfi_def_cfa_register 13
	@ sp needed
	ldr	fp, [sp], #4
	.cfi_restore 11
	.cfi_def_cfa_offset 0
	bx	lr
	.cfi_endproc
.LFE3:
	.size	pqGetMinPriority, .-pqGetMinPriority
	.align	2
	.syntax unified
	.arm
	.fpu softvfp
	.type	visit, %function
visit:
.LFB4:
	.file 2 "src/util/trains/path_finder.c"
	.loc 2 9 0
	.cfi_startproc
	@ Function supports interworking.
	@ args = 4, pretend = 0, frame = 24
	@ frame_needed = 1, uses_anonymous_args = 0
	push	{fp, lr}
	.cfi_def_cfa_offset 8
	.cfi_offset 11, -8
	.cfi_offset 14, -4
	add	fp, sp, #4
	.cfi_def_cfa 11, 4
	sub	sp, sp, #24
	str	r0, [fp, #-16]
	str	r1, [fp, #-20]
	str	r2, [fp, #-24]
	str	r3, [fp, #-28]
	ldr	r2, .L11
.LPIC0:
	add	r2, pc, r2
	.loc 2 10 0
	ldr	r3, [fp, #-16]
	ldr	r3, [r3, #8]
	mov	r1, r3
	ldr	r3, .L11+4
	ldr	r3, [r2, r3]
	sub	r3, r1, r3
	asr	r2, r3, #4
	mov	r3, r2
	lsl	r3, r3, #2
	add	r3, r3, r2
	lsl	r1, r3, #4
	add	r3, r3, r1
	lsl	r1, r3, #8
	add	r3, r3, r1
	lsl	r1, r3, #16
	add	r3, r3, r1
	lsl	r3, r3, #1
	add	r3, r3, r2
	str	r3, [fp, #-8]
	.loc 2 11 0
	ldr	r3, [fp, #-16]
	ldr	r2, [r3, #12]
	ldr	r3, [fp, #4]
	lsl	r3, r3, #2
	ldr	r1, [fp, #-24]
	add	r3, r1, r3
	ldr	r3, [r3]
	add	r3, r2, r3
	str	r3, [fp, #-12]
	.loc 2 12 0
	ldr	r3, [fp, #-8]
	lsl	r3, r3, #2
	ldr	r2, [fp, #-24]
	add	r3, r2, r3
	ldr	r2, [r3]
	ldr	r3, [fp, #-12]
	cmp	r2, r3
	ble	.L10
	.loc 2 13 0
	ldr	r3, [fp, #-8]
	lsl	r3, r3, #2
	ldr	r2, [fp, #-24]
	add	r3, r2, r3
	ldr	r2, [fp, #-12]
	str	r2, [r3]
	.loc 2 14 0
	ldr	r3, [fp, #-8]
	lsl	r3, r3, #2
	ldr	r2, [fp, #-28]
	add	r3, r2, r3
	ldr	r2, [fp, #4]
	str	r2, [r3]
	.loc 2 15 0
	ldr	r2, [fp, #-8]
	ldr	r1, [fp, #-12]
	ldr	r0, [fp, #-20]
	bl	pqInsert(PLT)
.L10:
	.loc 2 17 0
	nop
	sub	sp, fp, #4
	.cfi_def_cfa 13, 8
	@ sp needed
	pop	{fp, lr}
	.cfi_restore 14
	.cfi_restore 11
	.cfi_def_cfa_offset 0
	bx	lr
.L12:
	.align	2
.L11:
	.word	_GLOBAL_OFFSET_TABLE_-(.LPIC0+8)
	.word	track_nodes(GOT)
	.cfi_endproc
.LFE4:
	.size	visit, .-visit
	.section	.rodata
	.align	2
.LC0:
	.ascii	"Path: %s\012\015\000"
	.align	2
.LC1:
	.ascii	"Values; station %d, dist %d\012\015\000"
	.text
	.align	2
	.syntax unified
	.arm
	.fpu softvfp
	.type	compileRoute, %function
compileRoute:
.LFB5:
	.loc 2 27 0
	.cfi_startproc
	@ Function supports interworking.
	@ args = 16, pretend = 0, frame = 24
	@ frame_needed = 1, uses_anonymous_args = 0
	push	{r4, fp, lr}
	.cfi_def_cfa_offset 12
	.cfi_offset 4, -12
	.cfi_offset 11, -8
	.cfi_offset 14, -4
	add	fp, sp, #8
	.cfi_def_cfa 11, 4
	sub	sp, sp, #28
	str	r0, [fp, #-24]
	str	r1, [fp, #-28]
	str	r2, [fp, #-32]
	str	r3, [fp, #-36]
	ldr	r4, .L26
.LPIC1:
	add	r4, pc, r4
	.loc 2 29 0
	ldr	r3, [fp, #8]
	lsl	r3, r3, #2
	ldr	r2, [fp, #-28]
	add	r3, r2, r3
	ldr	r3, [r3]
	cmp	r3, #0
	beq	.L25
	.loc 2 31 0
	ldr	r3, [fp, #8]
	str	r3, [fp, #-16]
	.loc 2 32 0
	ldr	r3, [fp, #-16]
	lsl	r3, r3, #2
	ldr	r2, [fp, #-36]
	add	r3, r2, r3
	mvn	r2, #0
	str	r2, [r3]
	.loc 2 33 0
	b	.L16
.L17:
	.loc 2 34 0
	ldr	r3, [fp, #-16]
	lsl	r3, r3, #2
	ldr	r2, [fp, #-32]
	add	r3, r2, r3
	ldr	r3, [r3]
	lsl	r3, r3, #2
	ldr	r2, [fp, #-36]
	add	r3, r2, r3
	ldr	r2, [fp, #-16]
	str	r2, [r3]
	.loc 2 35 0
	ldr	r3, [fp, #-16]
	lsl	r3, r3, #2
	ldr	r2, [fp, #-32]
	add	r3, r2, r3
	ldr	r3, [r3]
	str	r3, [fp, #-16]
.L16:
	.loc 2 33 0
	ldr	r2, [fp, #-16]
	ldr	r3, [fp, #4]
	cmp	r2, r3
	bne	.L17
	.loc 2 38 0
	b	.L18
.L24:
	.loc 2 39 0
	ldr	r3, .L26+4
	ldr	r1, [r4, r3]
	ldr	r2, [fp, #-16]
	mov	r3, r2
	lsl	r3, r3, #1
	add	r3, r3, r2
	lsl	r3, r3, #4
	add	r3, r1, r3
	add	r3, r3, #4
	ldrb	r3, [r3]	@ zero_extendqisi2
	cmp	r3, #2
	bne	.L19
	.loc 2 40 0
	ldr	r3, [fp, #16]
	ldr	r0, [r3]
	ldr	r3, .L26+4
	ldr	r1, [r4, r3]
	ldr	r2, [fp, #-16]
	mov	r3, r2
	lsl	r3, r3, #1
	add	r3, r3, r2
	lsl	r3, r3, #4
	add	r3, r1, r3
	add	r3, r3, #8
	ldr	r2, [r3]
	ldr	r1, [fp, #16]
	lsl	r3, r0, #2
	add	r3, r1, r3
	str	r2, [r3, #4]
	.loc 2 41 0
	ldr	r3, [fp, #16]
	ldr	r1, [r3]
	add	r2, r1, #1
	ldr	r3, [fp, #16]
	str	r2, [r3]
	ldr	r3, [fp, #-16]
	lsl	r3, r3, #2
	ldr	r2, [fp, #-36]
	add	r3, r2, r3
	ldr	r0, [r3]
	ldr	r3, .L26+4
	ldr	ip, [r4, r3]
	ldr	r2, [fp, #-16]
	mov	r3, r2
	lsl	r3, r3, #1
	add	r3, r3, r2
	lsl	r3, r3, #4
	add	r3, ip, r3
	add	r3, r3, #24
	ldr	r3, [r3]
	mov	r2, r3
	ldr	r3, .L26+4
	ldr	r3, [r4, r3]
	sub	r3, r2, r3
	asr	r2, r3, #4
	mov	r3, r2
	lsl	r3, r3, #2
	add	r3, r3, r2
	lsl	ip, r3, #4
	add	r3, r3, ip
	lsl	ip, r3, #8
	add	r3, r3, ip
	lsl	ip, r3, #16
	add	r3, r3, ip
	lsl	r3, r3, #1
	add	r3, r3, r2
	cmp	r0, r3
	beq	.L20
	.loc 2 41 0 is_stmt 0 discriminator 1
	mov	r2, #34
	b	.L21
.L20:
	.loc 2 41 0 discriminator 2
	mov	r2, #33
.L21:
	.loc 2 41 0 discriminator 4
	ldr	r0, [fp, #16]
	add	r3, r1, #20
	lsl	r3, r3, #2
	add	r3, r0, r3
	str	r2, [r3, #4]
	b	.L22
.L19:
	.loc 2 42 0 is_stmt 1
	ldr	r3, .L26+4
	ldr	r1, [r4, r3]
	ldr	r2, [fp, #-16]
	mov	r3, r2
	lsl	r3, r3, #1
	add	r3, r3, r2
	lsl	r3, r3, #4
	add	r3, r1, r3
	add	r3, r3, #4
	ldrb	r3, [r3]	@ zero_extendqisi2
	cmp	r3, #1
	beq	.L23
	.loc 2 43 0 discriminator 1
	ldr	r3, .L26+4
	ldr	r1, [r4, r3]
	ldr	r2, [fp, #-16]
	mov	r3, r2
	lsl	r3, r3, #1
	add	r3, r3, r2
	lsl	r3, r3, #4
	add	r3, r1, r3
	add	r3, r3, #4
	ldrb	r3, [r3]	@ zero_extendqisi2
	.loc 2 42 0 discriminator 1
	cmp	r3, #4
	beq	.L23
	.loc 2 44 0
	ldr	r3, .L26+4
	ldr	r1, [r4, r3]
	ldr	r2, [fp, #-16]
	mov	r3, r2
	lsl	r3, r3, #1
	add	r3, r3, r2
	lsl	r3, r3, #4
	add	r3, r1, r3
	add	r3, r3, #4
	ldrb	r3, [r3]	@ zero_extendqisi2
	.loc 2 43 0
	cmp	r3, #5
	bne	.L22
.L23:
	.loc 2 45 0
	ldr	r3, .L26+4
	ldr	r1, [r4, r3]
	ldr	r2, [fp, #-16]
	mov	r3, r2
	lsl	r3, r3, #1
	add	r3, r3, r2
	lsl	r3, r3, #4
	add	r3, r1, r3
	ldr	r3, [r3]
	mov	r1, r3
	ldr	r3, .L26+8
.LPIC2:
	add	r3, pc, r3
	mov	r0, r3
	bl	tfp_dprintf(PLT)
	.loc 2 46 0
	ldr	r3, .L26+4
	ldr	r1, [r4, r3]
	ldr	r2, [fp, #-16]
	mov	r3, r2
	lsl	r3, r3, #1
	add	r3, r3, r2
	lsl	r3, r3, #4
	add	r3, r1, r3
	add	r3, r3, #8
	ldr	r1, [r3]
	ldr	r3, [fp, #-16]
	lsl	r3, r3, #2
	ldr	r2, [fp, #-24]
	add	r3, r2, r3
	ldr	r3, [r3]
	mov	r2, r3
	ldr	r3, .L26+12
.LPIC3:
	add	r3, pc, r3
	mov	r0, r3
	bl	tfp_dprintf(PLT)
	.loc 2 47 0
	ldr	r3, [fp, #12]
	ldr	r0, [r3]
	ldr	r3, .L26+4
	ldr	r1, [r4, r3]
	ldr	r2, [fp, #-16]
	mov	r3, r2
	lsl	r3, r3, #1
	add	r3, r3, r2
	lsl	r3, r3, #4
	add	r3, r1, r3
	add	r3, r3, #8
	ldr	r2, [r3]
	ldr	r1, [fp, #12]
	lsl	r3, r0, #2
	add	r3, r1, r3
	str	r2, [r3, #4]
	.loc 2 48 0
	ldr	r3, [fp, #12]
	ldr	r3, [r3]
	add	r1, r3, #1
	ldr	r2, [fp, #12]
	str	r1, [r2]
	ldr	r2, [fp, #-16]
	lsl	r2, r2, #2
	ldr	r1, [fp, #-24]
	add	r2, r1, r2
	ldr	r2, [r2]
	ldr	r1, [fp, #12]
	add	r3, r3, #20
	lsl	r3, r3, #2
	add	r3, r1, r3
	str	r2, [r3, #4]
.L22:
	.loc 2 50 0
	ldr	r3, [fp, #-16]
	lsl	r3, r3, #2
	ldr	r2, [fp, #-36]
	add	r3, r2, r3
	ldr	r3, [r3]
	str	r3, [fp, #-16]
.L18:
	.loc 2 38 0
	ldr	r3, [fp, #-16]
	cmn	r3, #1
	bne	.L24
	b	.L13
.L25:
	.loc 2 29 0
	nop
.L13:
	.loc 2 52 0
	sub	sp, fp, #8
	.cfi_def_cfa 13, 12
	@ sp needed
	pop	{r4, fp, lr}
	.cfi_restore 14
	.cfi_restore 11
	.cfi_restore 4
	.cfi_def_cfa_offset 0
	bx	lr
.L27:
	.align	2
.L26:
	.word	_GLOBAL_OFFSET_TABLE_-(.LPIC1+8)
	.word	track_nodes(GOT)
	.word	.LC0-(.LPIC2+8)
	.word	.LC1-(.LPIC3+8)
	.cfi_endproc
.LFE5:
	.size	compileRoute, .-compileRoute
	.align	2
	.global	findPath
	.syntax unified
	.arm
	.fpu softvfp
	.type	findPath, %function
findPath:
.LFB6:
	.loc 2 58 0
	.cfi_startproc
	@ Function supports interworking.
	@ args = 0, pretend = 0, frame = 4736
	@ frame_needed = 1, uses_anonymous_args = 0
	push	{r4, fp, lr}
	.cfi_def_cfa_offset 12
	.cfi_offset 4, -12
	.cfi_offset 11, -8
	.cfi_offset 14, -4
	add	fp, sp, #8
	.cfi_def_cfa 11, 4
	sub	sp, sp, #4736
	sub	sp, sp, #20
	sub	ip, fp, #4096
	sub	ip, ip, #12
	str	r0, [ip, #-628]
	sub	r0, fp, #4096
	sub	r0, r0, #12
	str	r1, [r0, #-632]
	sub	r1, fp, #4096
	sub	r1, r1, #12
	str	r2, [r1, #-636]
	sub	r2, fp, #4096
	sub	r2, r2, #12
	str	r3, [r2, #-640]
	ldr	r4, .L41
.LPIC4:
	add	r4, pc, r4
	.loc 2 69 0
	sub	r3, fp, #4672
	sub	r3, r3, #12
	sub	r3, r3, #48
	mov	r0, r3
	bl	pqInit(PLT)
	.loc 2 71 0
	mov	r3, #0
	str	r3, [fp, #-16]
	b	.L29
.L30:
	.loc 2 72 0 discriminator 3
	ldr	r3, [fp, #-16]
	lsl	r3, r3, #2
	sub	r2, fp, #12
	add	r3, r2, r3
	mvn	r2, #-2147483648
	str	r2, [r3, #-588]
	.loc 2 73 0 discriminator 3
	ldr	r3, [fp, #-16]
	lsl	r3, r3, #2
	sub	r2, fp, #12
	add	r3, r2, r3
	mov	r2, #0
	str	r2, [r3, #-1164]
	.loc 2 71 0 discriminator 3
	ldr	r3, [fp, #-16]
	add	r3, r3, #1
	str	r3, [fp, #-16]
.L29:
	.loc 2 71 0 is_stmt 0 discriminator 1
	ldr	r3, [fp, #-16]
	cmp	r3, #143
	ble	.L30
	.loc 2 76 0 is_stmt 1
	sub	r3, fp, #4096
	sub	r3, r3, #12
	ldr	r3, [r3, #-628]
	lsl	r3, r3, #2
	sub	r2, fp, #12
	add	r3, r2, r3
	mov	r2, #0
	str	r2, [r3, #-588]
	.loc 2 77 0
	sub	r3, fp, #4096
	sub	r3, r3, #12
	ldr	r3, [r3, #-628]
	lsl	r3, r3, #2
	sub	r2, fp, #12
	add	r3, r2, r3
	sub	r2, fp, #4096
	sub	r2, r2, #12
	ldr	r2, [r2, #-628]
	str	r2, [r3, #-1740]
	.loc 2 79 0
	sub	r3, fp, #4096
	sub	r3, r3, #12
	mov	r2, r3
	sub	r3, fp, #4672
	sub	r3, r3, #12
	sub	r3, r3, #48
	ldr	r2, [r2, #-628]
	mov	r1, #0
	mov	r0, r3
	bl	pqInsert(PLT)
	.loc 2 81 0
	b	.L31
.L38:
.LBB2:
	.loc 2 82 0
	sub	r3, fp, #4672
	sub	r3, r3, #12
	sub	r3, r3, #48
	mov	r0, r3
	bl	pqGetMin(PLT)
	str	r0, [fp, #-20]
	.loc 2 83 0
	sub	r3, fp, #4672
	sub	r3, r3, #12
	sub	r3, r3, #48
	mov	r0, r3
	bl	pqGetMinPriority(PLT)
	str	r0, [fp, #-24]
	.loc 2 85 0
	sub	r3, fp, #4096
	sub	r3, r3, #12
	ldr	r2, [fp, #-20]
	ldr	r3, [r3, #-632]
	cmp	r2, r3
	bne	.L32
	.loc 2 86 0
	ldr	r3, [fp, #-20]
	lsl	r3, r3, #2
	sub	r2, fp, #12
	add	r3, r2, r3
	mov	r2, #1
	str	r2, [r3, #-1164]
	.loc 2 87 0
	sub	r3, fp, #2304
	sub	r3, r3, #12
	sub	r3, r3, #12
	sub	r2, fp, #1728
	sub	r2, r2, #12
	sub	r2, r2, #12
	sub	r1, fp, #1152
	sub	r1, r1, #12
	sub	r1, r1, #12
	sub	ip, fp, #600
	sub	r0, fp, #4096
	sub	r0, r0, #12
	ldr	r0, [r0, #-640]
	str	r0, [sp, #12]
	sub	r0, fp, #4096
	sub	r0, r0, #12
	ldr	r0, [r0, #-636]
	str	r0, [sp, #8]
	sub	r0, fp, #4096
	sub	r0, r0, #12
	ldr	r0, [r0, #-632]
	str	r0, [sp, #4]
	sub	r0, fp, #4096
	sub	r0, r0, #12
	ldr	r0, [r0, #-628]
	str	r0, [sp]
	mov	r0, ip
	bl	compileRoute(PLT)
	.loc 2 89 0
	ldr	r3, [fp, #-24]
	b	.L39
.L32:
	.loc 2 92 0
	sub	r3, fp, #4672
	sub	r3, r3, #12
	sub	r3, r3, #48
	mov	r0, r3
	bl	pqPop(PLT)
	.loc 2 94 0
	ldr	r3, [fp, #-20]
	lsl	r3, r3, #2
	sub	r2, fp, #12
	add	r3, r2, r3
	ldr	r3, [r3, #-1164]
	cmp	r3, #0
	beq	.L34
	.loc 2 95 0
	b	.L31
.L34:
	.loc 2 97 0
	ldr	r3, [fp, #-20]
	lsl	r3, r3, #2
	sub	r2, fp, #12
	add	r3, r2, r3
	mov	r2, #1
	str	r2, [r3, #-1164]
	.loc 2 99 0
	ldr	r3, .L41+4
	ldr	r1, [r4, r3]
	ldr	r2, [fp, #-20]
	mov	r3, r2
	lsl	r3, r3, #1
	add	r3, r3, r2
	lsl	r3, r3, #4
	add	r3, r1, r3
	add	r3, r3, #4
	ldrb	r3, [r3]	@ zero_extendqisi2
	cmp	r3, #2
	beq	.L36
	cmp	r3, #3
	beq	.L37
	cmp	r3, #1
	bne	.L40
.L37:
	.loc 2 102 0
	ldr	r2, [fp, #-20]
	mov	r3, r2
	lsl	r3, r3, #1
	add	r3, r3, r2
	lsl	r3, r3, #4
	add	r3, r3, #16
	ldr	r2, .L41+4
	ldr	r2, [r4, r2]
	add	r0, r3, r2
	sub	r3, fp, #1728
	sub	r3, r3, #12
	sub	r3, r3, #12
	sub	ip, fp, #600
	sub	r1, fp, #4672
	sub	r1, r1, #12
	sub	r1, r1, #48
	ldr	r2, [fp, #-20]
	str	r2, [sp]
	mov	r2, ip
	bl	visit(PLT)
	.loc 2 103 0
	b	.L31
.L36:
	.loc 2 105 0
	ldr	r2, [fp, #-20]
	mov	r3, r2
	lsl	r3, r3, #1
	add	r3, r3, r2
	lsl	r3, r3, #4
	add	r3, r3, #16
	ldr	r2, .L41+4
	ldr	r2, [r4, r2]
	add	r0, r3, r2
	sub	r3, fp, #1728
	sub	r3, r3, #12
	sub	r3, r3, #12
	sub	ip, fp, #600
	sub	r1, fp, #4672
	sub	r1, r1, #12
	sub	r1, r1, #48
	ldr	r2, [fp, #-20]
	str	r2, [sp]
	mov	r2, ip
	bl	visit(PLT)
	.loc 2 106 0
	ldr	r2, [fp, #-20]
	mov	r3, r2
	lsl	r3, r3, #1
	add	r3, r3, r2
	lsl	r3, r3, #4
	add	r3, r3, #32
	ldr	r2, .L41+4
	ldr	r2, [r4, r2]
	add	r0, r3, r2
	sub	r3, fp, #1728
	sub	r3, r3, #12
	sub	r3, r3, #12
	sub	ip, fp, #600
	sub	r1, fp, #4672
	sub	r1, r1, #12
	sub	r1, r1, #48
	ldr	r2, [fp, #-20]
	str	r2, [sp]
	mov	r2, ip
	bl	visit(PLT)
	.loc 2 107 0
	b	.L31
.L40:
	.loc 2 109 0
	nop
.L31:
.LBE2:
	.loc 2 81 0
	sub	r3, fp, #4672
	sub	r3, r3, #12
	sub	r3, r3, #48
	mov	r0, r3
	bl	pqSize(PLT)
	mov	r3, r0
	cmp	r3, #0
	bne	.L38
	.loc 2 113 0
	mvn	r3, #0
.L39:
	.loc 2 114 0 discriminator 1
	mov	r0, r3
	sub	sp, fp, #8
	.cfi_def_cfa 13, 12
	@ sp needed
	pop	{r4, fp, lr}
	.cfi_restore 14
	.cfi_restore 11
	.cfi_restore 4
	.cfi_def_cfa_offset 0
	bx	lr
.L42:
	.align	2
.L41:
	.word	_GLOBAL_OFFSET_TABLE_-(.LPIC4+8)
	.word	track_nodes(GOT)
	.cfi_endproc
.LFE6:
	.size	findPath, .-findPath
.Letext0:
	.file 3 "src/util/trains/track_data.h"
	.file 4 "src/util/trains/path_finder.h"