	.cpu arm920t
	.eabi_attribute 20, 1
	.eabi_attribute 21, 1
	.eabi_attribute 23, 3
	.eabi_attribute 24, 1
	.eabi_attribute 25, 1
	.eabi_attribute 26, 1
	.eabi_attribute 30, 6
	.eabi_attribute 34, 0
	.eabi_attribute 18, 4
	.file	"track.c"
	.text
.Ltext0:
	.cfi_sections	.debug_frame
	.section	.rodata
	.align	2
.LC0:
	.byte	5
	.byte	15
	.text
	.align	2
	.syntax unified
	.arm
	.fpu softvfp
	.type	initTrack, %function
initTrack:
.LFB0:
	.file 1 "src/util/trains/track.c"
	.loc 1 6 0
	.cfi_startproc
	@ Function supports interworking.
	@ args = 0, pretend = 0, frame = 16
	@ frame_needed = 1, uses_anonymous_args = 0
	@ link register save eliminated.
	str	fp, [sp, #-4]!
	.cfi_def_cfa_offset 4
	.cfi_offset 11, -4
	add	fp, sp, #0
	.cfi_def_cfa_register 11
	sub	sp, sp, #20
	str	r0, [fp, #-16]
	.loc 1 9 0
	mov	r3, #0
	str	r3, [fp, #-8]
	b	.L2
.L3:
	.loc 1 10 0 discriminator 3
	ldr	r1, [fp, #-16]
	ldr	r3, [fp, #-8]
	ldr	r2, .L4
.LPIC0:
	add	r2, pc, r2
	lsl	r3, r3, #1
	add	r3, r1, r3
	ldrh	r2, [r2]	@ movhi
	strh	r2, [r3]	@ movhi
	.loc 1 11 0 discriminator 3
	ldr	r2, [fp, #-16]
	ldr	r3, [fp, #-8]
	add	r3, r3, #14
	lsl	r3, r3, #2
	add	r3, r2, r3
	ldr	r2, .L4+4
.LPIC1:
	add	r2, pc, r2
	ldrh	r2, [r2]	@ movhi
	strh	r2, [r3, #6]	@ movhi
	.loc 1 12 0 discriminator 3
	ldr	r2, [fp, #-16]
	ldr	r3, [fp, #-8]
	lsl	r3, r3, #2
	add	r3, r2, r3
	ldr	r2, .L4+8
.LPIC2:
	add	r2, pc, r2
	ldrh	r2, [r2]	@ movhi
	strh	r2, [r3, #64]	@ movhi
	.loc 1 13 0 discriminator 3
	ldr	r2, [fp, #-16]
	ldr	r3, [fp, #-8]
	add	r3, r3, #46
	lsl	r3, r3, #2
	add	r3, r2, r3
	mvn	r2, #0
	str	r2, [r3, #4]
	.loc 1 14 0 discriminator 3
	ldr	r3, [fp, #-16]
	ldr	r2, [fp, #-8]
	add	r2, r2, #78
	mvn	r1, #0
	str	r1, [r3, r2, lsl #2]
	.loc 1 15 0 discriminator 3
	ldr	r2, [fp, #-16]
	ldr	r3, [fp, #-8]
	add	r3, r3, #108
	lsl	r3, r3, #2
	add	r3, r2, r3
	mov	r2, #0
	str	r2, [r3, #4]
	.loc 1 16 0 discriminator 3
	ldr	r3, [fp, #-16]
	ldr	r2, [fp, #-8]
	add	r2, r2, #636
	mov	r1, #0
	str	r1, [r3, r2, lsl #2]
	.loc 1 18 0 discriminator 3
	ldr	r1, [fp, #-16]
	ldr	r2, [fp, #-8]
	mov	r3, r2
	lsl	r3, r3, #4
	sub	r3, r3, r2
	lsl	r3, r3, #2
	add	r3, r1, r3
	add	r3, r3, #684
	mov	r2, #0
	str	r2, [r3]
	.loc 1 19 0 discriminator 3
	ldr	r1, [fp, #-16]
	ldr	r2, [fp, #-8]
	mov	r3, r2
	lsl	r3, r3, #4
	sub	r3, r3, r2
	lsl	r3, r3, #2
	add	r3, r1, r3
	add	r3, r3, #688
	mov	r2, #0
	str	r2, [r3]
	.loc 1 20 0 discriminator 3
	ldr	r1, [fp, #-16]
	ldr	r2, [fp, #-8]
	mov	r3, r2
	lsl	r3, r3, #4
	sub	r3, r3, r2
	lsl	r3, r3, #2
	add	r3, r1, r3
	add	r3, r3, #692
	mov	r2, #0
	str	r2, [r3]
	.loc 1 21 0 discriminator 3
	ldr	r1, [fp, #-16]
	ldr	r2, [fp, #-8]
	mov	r3, r2
	lsl	r3, r3, #4
	sub	r3, r3, r2
	lsl	r3, r3, #2
	add	r3, r1, r3
	add	r3, r3, #696
	mov	r2, #0
	str	r2, [r3]
	.loc 1 22 0 discriminator 3
	ldr	r1, [fp, #-16]
	ldr	r2, [fp, #-8]
	mov	r3, r2
	lsl	r3, r3, #4
	sub	r3, r3, r2
	lsl	r3, r3, #2
	add	r3, r1, r3
	add	r3, r3, #700
	mov	r2, #0
	str	r2, [r3]
	.loc 1 23 0 discriminator 3
	ldr	r1, [fp, #-16]
	ldr	r2, [fp, #-8]
	mov	r3, r2
	lsl	r3, r3, #4
	sub	r3, r3, r2
	lsl	r3, r3, #2
	add	r3, r1, r3
	add	r3, r3, #704
	mov	r2, #0
	str	r2, [r3]
	.loc 1 24 0 discriminator 3
	ldr	r1, [fp, #-16]
	ldr	r2, [fp, #-8]
	mov	r3, r2
	lsl	r3, r3, #4
	sub	r3, r3, r2
	lsl	r3, r3, #2
	add	r3, r1, r3
	add	r3, r3, #708
	mov	r2, #0
	str	r2, [r3]
	.loc 1 25 0 discriminator 3
	ldr	r1, [fp, #-16]
	ldr	r2, [fp, #-8]
	mov	r3, r2
	lsl	r3, r3, #4
	sub	r3, r3, r2
	lsl	r3, r3, #2
	add	r3, r1, r3
	add	r3, r3, #712
	mov	r2, #0
	str	r2, [r3]
	.loc 1 26 0 discriminator 3
	ldr	r1, [fp, #-16]
	ldr	r2, [fp, #-8]
	mov	r3, r2
	lsl	r3, r3, #4
	sub	r3, r3, r2
	lsl	r3, r3, #2
	add	r3, r1, r3
	add	r3, r3, #716
	mov	r2, #0
	str	r2, [r3]
	.loc 1 27 0 discriminator 3
	ldr	r1, [fp, #-16]
	ldr	r2, [fp, #-8]
	mov	r3, r2
	lsl	r3, r3, #4
	sub	r3, r3, r2
	lsl	r3, r3, #2
	add	r3, r1, r3
	add	r3, r3, #720
	mov	r2, #0
	str	r2, [r3]
	.loc 1 28 0 discriminator 3
	ldr	r1, [fp, #-16]
	ldr	r2, [fp, #-8]
	mov	r3, r2
	lsl	r3, r3, #4
	sub	r3, r3, r2
	lsl	r3, r3, #2
	add	r3, r1, r3
	add	r3, r3, #724
	mov	r2, #0
	str	r2, [r3]
	.loc 1 29 0 discriminator 3
	ldr	r1, [fp, #-16]
	ldr	r2, [fp, #-8]
	mov	r3, r2
	lsl	r3, r3, #4
	sub	r3, r3, r2
	lsl	r3, r3, #2
	add	r3, r1, r3
	add	r3, r3, #728
	mov	r2, #0
	str	r2, [r3]
	.loc 1 30 0 discriminator 3
	ldr	r1, [fp, #-16]
	ldr	r2, [fp, #-8]
	mov	r3, r2
	lsl	r3, r3, #4
	sub	r3, r3, r2
	lsl	r3, r3, #2
	add	r3, r1, r3
	add	r3, r3, #732
	mov	r2, #0
	str	r2, [r3]
	.loc 1 31 0 discriminator 3
	ldr	r1, [fp, #-16]
	ldr	r2, [fp, #-8]
	mov	r3, r2
	lsl	r3, r3, #4
	sub	r3, r3, r2
	lsl	r3, r3, #2
	add	r3, r1, r3
	add	r3, r3, #736
	mov	r2, #0
	str	r2, [r3]
	.loc 1 32 0 discriminator 3
	ldr	r1, [fp, #-16]
	ldr	r2, [fp, #-8]
	mov	r3, r2
	lsl	r3, r3, #4
	sub	r3, r3, r2
	lsl	r3, r3, #2
	add	r3, r1, r3
	add	r3, r3, #740
	mov	r2, #0
	str	r2, [r3]
	.loc 1 9 0 discriminator 3
	ldr	r3, [fp, #-8]
	add	r3, r3, #1
	str	r3, [fp, #-8]
.L2:
	.loc 1 9 0 is_stmt 0 discriminator 1
	ldr	r3, [fp, #-8]
	cmp	r3, #30
	ble	.L3
	.loc 1 35 0 is_stmt 1
	ldr	r3, [fp, #-16]
	mvn	r2, #0
	str	r2, [r3, #2668]
	.loc 1 36 0
	nop
	add	sp, fp, #0
	.cfi_def_cfa_register 13
	@ sp needed
	ldr	fp, [sp], #4
	.cfi_restore 11
	.cfi_def_cfa_offset 0
	bx	lr
.L5:
	.align	2
.L4:
	.word	.LC0-(.LPIC0+8)
	.word	.LC0-(.LPIC1+8)
	.word	.LC0-(.LPIC2+8)
	.cfi_endproc
.LFE0:
	.size	initTrack, .-initTrack
	.align	2
	.syntax unified
	.arm
	.fpu softvfp
	.type	getNextLocation, %function
getNextLocation:
.LFB1:
	.loc 1 41 0
	.cfi_startproc
	@ Function supports interworking.
	@ args = 0, pretend = 0, frame = 24
	@ frame_needed = 1, uses_anonymous_args = 0
	push	{fp, lr}
	.cfi_def_cfa_offset 8
	.cfi_offset 11, -8
	.cfi_offset 14, -4
	add	fp, sp, #4
	.cfi_def_cfa 11, 4
	sub	sp, sp, #24
	str	r0, [fp, #-24]
	strh	r1, [fp, #-28]	@ movhi
	.loc 1 43 0
	ldr	r3, [fp, #-24]
	ldr	r3, [r3, #2668]
	mov	r1, r3
	ldr	r0, [fp, #-28]
	bl	getNextSensor(PLT)
	mov	r3, r0	@ movhi
	strh	r3, [fp, #-16]	@ movhi
	.loc 1 46 0
	mov	r3, #0
	str	r3, [fp, #-8]
	b	.L7
.L12:
	.loc 1 47 0
	ldr	r2, [fp, #-24]
	ldr	r3, [fp, #-8]
	add	r3, r3, #14
	lsl	r3, r3, #2
	add	r3, r2, r3
	ldrb	r2, [r3, #6]	@ zero_extendqisi2
	ldrb	r3, [fp, #-16]	@ zero_extendqisi2
	cmp	r2, r3
	bne	.L8
	.loc 1 47 0 is_stmt 0 discriminator 1
	ldr	r2, [fp, #-24]
	ldr	r3, [fp, #-8]
	add	r3, r3, #14
	lsl	r3, r3, #2
	add	r3, r2, r3
	ldrb	r3, [r3, #7]
	and	r3, r3, #15
	and	r2, r3, #255
	ldrb	r3, [fp, #-15]
	and	r3, r3, #15
	and	r3, r3, #255
	cmp	r2, r3
	bne	.L8
	.loc 1 47 0 discriminator 3
	ldr	r2, [fp, #-24]
	ldr	r3, [fp, #-8]
	add	r3, r3, #14
	lsl	r3, r3, #2
	add	r3, r2, r3
	ldrb	r3, [r3, #6]	@ zero_extendqisi2
	cmp	r3, #5
	bne	.L9
.L8:
	.loc 1 48 0 is_stmt 1 discriminator 5
	ldr	r2, [fp, #-24]
	ldr	r3, [fp, #-8]
	lsl	r3, r3, #2
	add	r3, r2, r3
	ldrb	r2, [r3, #64]	@ zero_extendqisi2
	ldrb	r3, [fp, #-16]	@ zero_extendqisi2
	.loc 1 47 0 discriminator 5
	cmp	r2, r3
	bne	.L10
	.loc 1 48 0
	ldr	r2, [fp, #-24]
	ldr	r3, [fp, #-8]
	lsl	r3, r3, #2
	add	r3, r2, r3
	ldrb	r3, [r3, #65]
	and	r3, r3, #15
	and	r2, r3, #255
	ldrb	r3, [fp, #-15]
	and	r3, r3, #15
	and	r3, r3, #255
	cmp	r2, r3
	bne	.L10
	.loc 1 48 0 is_stmt 0 discriminator 1
	ldr	r2, [fp, #-24]
	ldr	r3, [fp, #-8]
	lsl	r3, r3, #2
	add	r3, r2, r3
	ldrb	r3, [r3, #64]	@ zero_extendqisi2
	cmp	r3, #5
	beq	.L10
.L9:
	.loc 1 49 0 is_stmt 1
	ldr	r3, .L14
.LPIC3:
	add	r3, pc, r3
	ldrh	r3, [r3]	@ movhi
	strh	r3, [fp, #-12]	@ movhi
	b	.L13
.L10:
	.loc 1 46 0 discriminator 2
	ldr	r3, [fp, #-8]
	add	r3, r3, #1
	str	r3, [fp, #-8]
.L7:
	.loc 1 46 0 is_stmt 0 discriminator 1
	ldr	r3, [fp, #-8]
	cmp	r3, #30
	ble	.L12
	.loc 1 52 0 is_stmt 1
	ldrh	r3, [fp, #-16]	@ movhi
	strh	r3, [fp, #-12]	@ movhi
.L13:
	mov	r3, #0
	ldrb	r2, [fp, #-12]	@ zero_extendqisi2
	and	r2, r2, #255
	bic	r3, r3, #255
	orr	r3, r2, r3
	ldrb	r2, [fp, #-11]	@ zero_extendqisi2
	and	r2, r2, #255
	bic	r3, r3, #65280
	lsl	r2, r2, #8
	orr	r3, r2, r3
	.loc 1 53 0 discriminator 1
	mov	r0, r3	@ movhi
	sub	sp, fp, #4
	.cfi_def_cfa 13, 8
	@ sp needed
	pop	{fp, lr}
	.cfi_restore 14
	.cfi_restore 11
	.cfi_def_cfa_offset 0
	bx	lr
.L15:
	.align	2
.L14:
	.word	.LC0-(.LPIC3+8)
	.cfi_endproc
.LFE1:
	.size	getNextLocation, .-getNextLocation
	.global	__aeabi_idiv
	.align	2
	.syntax unified
	.arm
	.fpu softvfp
	.type	doSensorHit, %function
doSensorHit:
.LFB2:
	.loc 1 56 0
	.cfi_startproc
	@ Function supports interworking.
	@ args = 0, pretend = 0, frame = 24
	@ frame_needed = 1, uses_anonymous_args = 0
	push	{r4, fp, lr}
	.cfi_def_cfa_offset 12
	.cfi_offset 4, -12
	.cfi_offset 11, -8
	.cfi_offset 14, -4
	add	fp, sp, #8
	.cfi_def_cfa 11, 4
	sub	sp, sp, #28
	str	r0, [fp, #-24]
	str	r1, [fp, #-28]
	str	r2, [fp, #-32]
	.loc 1 57 0
	ldr	r3, [fp, #-24]
	ldr	r1, [r3, #2668]
	ldr	r2, [fp, #-24]
	ldr	r3, [fp, #-28]
	lsl	r3, r3, #1
	add	r3, r2, r3
	ldrh	r2, [r3]
	mov	r3, #0
	lsl	r2, r2, #16
	lsr	r3, r3, #16
	orr	r3, r3, r2
	ror	r3, r3, #16
	mov	r0, r3
	bl	getDistanceToNext(PLT)
	str	r0, [fp, #-16]
	.loc 1 58 0
	ldr	r2, [fp, #-24]
	ldr	r3, [fp, #-28]
	add	r3, r3, #46
	lsl	r3, r3, #2
	add	r3, r2, r3
	ldr	r3, [r3, #4]
	ldr	r2, [fp, #-32]
	sub	r3, r2, r3
	str	r3, [fp, #-20]
	.loc 1 60 0
	ldr	r3, [fp, #-24]
	ldr	r2, [fp, #-28]
	add	r2, r2, #636
	ldr	r3, [r3, r2, lsl #2]
	cmp	r3, #0
	beq	.L17
	.loc 1 62 0
	ldr	r2, [fp, #-24]
	ldr	r3, [fp, #-28]
	add	r3, r3, #108
	lsl	r3, r3, #2
	add	r3, r2, r3
	ldr	r4, [r3, #4]
	ldr	r1, [fp, #-16]
	ldr	r0, [fp, #-20]
	bl	__aeabi_idiv(PLT)
.LVL0:
	mov	r3, r0
	mov	r0, r3
	ldr	r1, [fp, #-24]
	ldr	r2, [fp, #-28]
	mov	r3, r2
	lsl	r3, r3, #4
	sub	r3, r3, r2
	add	r3, r3, r4
	add	r3, r3, #170
	lsl	r3, r3, #2
	add	r3, r1, r3
	str	r0, [r3, #4]
	.loc 1 63 0
	ldr	r1, [fp, #-24]
	ldr	r2, [fp, #-28]
	ldr	r0, [fp, #-24]
	ldr	r3, [fp, #-28]
	add	r3, r3, #14
	lsl	r3, r3, #2
	add	r3, r0, r3
	lsl	r2, r2, #1
	add	r2, r1, r2
	ldrh	r3, [r3, #6]	@ movhi
	strh	r3, [r2]	@ movhi
	.loc 1 64 0
	ldr	r3, [fp, #-24]
	ldr	r2, [fp, #-28]
	add	r2, r2, #14
	lsl	r4, r2, #2
	add	r4, r3, r4
	ldr	r2, [fp, #-24]
	ldr	r3, [fp, #-28]
	lsl	r3, r3, #1
	add	r3, r2, r3
	ldrh	r2, [r3]
	mov	r3, #0
	lsl	r2, r2, #16
	lsr	r3, r3, #16
	orr	r3, r3, r2
	ror	r3, r3, #16
	mov	r1, r3
	ldr	r0, [fp, #-24]
	bl	getNextLocation(PLT)
	mov	r3, r0	@ movhi
	strh	r3, [r4, #6]	@ movhi
	.loc 1 65 0
	ldr	r2, [fp, #-24]
	ldr	r3, [fp, #-28]
	lsl	r3, r3, #2
	add	r3, r2, r3
	ldr	r1, [fp, #-24]
	ldr	r2, [fp, #-28]
	add	r2, r2, #14
	lsl	r2, r2, #2
	add	r2, r1, r2
	ldrh	r2, [r2, #6]	@ movhi
	strh	r2, [r3, #64]	@ movhi
	.loc 1 66 0
	ldr	r2, [fp, #-24]
	ldr	r3, [fp, #-28]
	add	r3, r3, #46
	lsl	r3, r3, #2
	add	r3, r2, r3
	ldr	r2, [fp, #-32]
	str	r2, [r3, #4]
	.loc 1 71 0
	b	.L19
.L17:
	.loc 1 69 0
	ldr	r3, [fp, #-24]
	ldr	r2, [fp, #-28]
	add	r2, r2, #636
	mov	r1, #1
	str	r1, [r3, r2, lsl #2]
.L19:
	.loc 1 71 0
	nop
	sub	sp, fp, #8
	.cfi_def_cfa 13, 12
	@ sp needed
	pop	{r4, fp, lr}
	.cfi_restore 14
	.cfi_restore 11
	.cfi_restore 4
	.cfi_def_cfa_offset 0
	bx	lr
	.cfi_endproc
.LFE2:
	.size	doSensorHit, .-doSensorHit
	.align	2
	.global	initTrackA
	.syntax unified
	.arm
	.fpu softvfp
	.type	initTrackA, %function
initTrackA:
.LFB3:
	.loc 1 74 0
	.cfi_startproc
	@ Function supports interworking.
	@ args = 0, pretend = 0, frame = 8
	@ frame_needed = 1, uses_anonymous_args = 0
	push	{fp, lr}
	.cfi_def_cfa_offset 8
	.cfi_offset 11, -8
	.cfi_offset 14, -4
	add	fp, sp, #4
	.cfi_def_cfa 11, 4
	sub	sp, sp, #8
	str	r0, [fp, #-8]
	.loc 1 75 0
	bl	init_tracka(PLT)
	.loc 1 76 0
	mov	r0, #1
	bl	setSensorTrack(PLT)
	.loc 1 77 0
	ldr	r0, [fp, #-8]
	bl	initTrack(PLT)
	.loc 1 78 0
	nop
	sub	sp, fp, #4
	.cfi_def_cfa 13, 8
	@ sp needed
	pop	{fp, lr}
	.cfi_restore 14
	.cfi_restore 11
	.cfi_def_cfa_offset 0
	bx	lr
	.cfi_endproc
.LFE3:
	.size	initTrackA, .-initTrackA
	.align	2
	.global	initTrackB
	.syntax unified
	.arm
	.fpu softvfp
	.type	initTrackB, %function
initTrackB:
.LFB4:
	.loc 1 81 0
	.cfi_startproc
	@ Function supports interworking.
	@ args = 0, pretend = 0, frame = 8
	@ frame_needed = 1, uses_anonymous_args = 0
	push	{fp, lr}
	.cfi_def_cfa_offset 8
	.cfi_offset 11, -8
	.cfi_offset 14, -4
	add	fp, sp, #4
	.cfi_def_cfa 11, 4
	sub	sp, sp, #8
	str	r0, [fp, #-8]
	.loc 1 82 0
	bl	init_trackb(PLT)
	.loc 1 83 0
	mov	r0, #0
	bl	setSensorTrack(PLT)
	.loc 1 84 0
	ldr	r0, [fp, #-8]
	bl	initTrack(PLT)
	.loc 1 85 0
	nop
	sub	sp, fp, #4
	.cfi_def_cfa 13, 8
	@ sp needed
	pop	{fp, lr}
	.cfi_restore 14
	.cfi_restore 11
	.cfi_def_cfa_offset 0
	bx	lr
	.cfi_endproc
.LFE4:
	.size	initTrackB, .-initTrackB
	.align	2
	.global	addTrain
	.syntax unified
	.arm
	.fpu softvfp
	.type	addTrain, %function
addTrain:
.LFB5:
	.loc 1 88 0
	.cfi_startproc
	@ Function supports interworking.
	@ args = 0, pretend = 0, frame = 24
	@ frame_needed = 1, uses_anonymous_args = 0
	push	{r4, fp, lr}
	.cfi_def_cfa_offset 12
	.cfi_offset 4, -12
	.cfi_offset 11, -8
	.cfi_offset 14, -4
	add	fp, sp, #8
	.cfi_def_cfa 11, 4
	sub	sp, sp, #28
	str	r0, [fp, #-24]
	str	r1, [fp, #-28]
	strh	r2, [fp, #-32]	@ movhi
	.loc 1 89 0
	mov	r3, #0
	str	r3, [fp, #-16]
	.loc 1 91 0
	b	.L23
.L24:
	.loc 1 91 0 is_stmt 0 discriminator 2
	ldr	r3, [fp, #-16]
	add	r3, r3, #1
	str	r3, [fp, #-16]
.L23:
	.loc 1 91 0 discriminator 1
	ldr	r3, [fp, #-24]
	ldr	r2, [fp, #-16]
	add	r2, r2, #78
	ldr	r3, [r3, r2, lsl #2]
	cmp	r3, #0
	blt	.L24
	.loc 1 93 0 is_stmt 1
	ldr	r3, [fp, #-24]
	ldr	r2, [fp, #-16]
	add	r2, r2, #78
	ldr	r1, [fp, #-28]
	str	r1, [r3, r2, lsl #2]
	.loc 1 94 0
	ldr	r2, [fp, #-24]
	ldr	r3, [fp, #-16]
	lsl	r3, r3, #1
	add	r3, r2, r3
	ldrh	r2, [fp, #-32]	@ movhi
	strh	r2, [r3]	@ movhi
	.loc 1 95 0
	ldr	r3, [fp, #-24]
	ldr	r2, [fp, #-16]
	add	r2, r2, #14
	lsl	r4, r2, #2
	add	r4, r3, r4
	ldr	r1, [fp, #-32]
	ldr	r0, [fp, #-24]
	bl	getNextLocation(PLT)
	mov	r3, r0	@ movhi
	strh	r3, [r4, #6]	@ movhi
	.loc 1 96 0
	ldr	r2, [fp, #-24]
	ldr	r3, [fp, #-16]
	lsl	r3, r3, #2
	add	r3, r2, r3
	ldr	r1, [fp, #-24]
	ldr	r2, [fp, #-16]
	add	r2, r2, #14
	lsl	r2, r2, #2
	add	r2, r1, r2
	ldrh	r2, [r2, #6]	@ movhi
	strh	r2, [r3, #64]	@ movhi
	.loc 1 98 0
	ldr	r3, [fp, #-16]
	.loc 1 99 0
	mov	r0, r3
	sub	sp, fp, #8
	.cfi_def_cfa 13, 12
	@ sp needed
	pop	{r4, fp, lr}
	.cfi_restore 14
	.cfi_restore 11
	.cfi_restore 4
	.cfi_def_cfa_offset 0
	bx	lr
	.cfi_endproc
.LFE5:
	.size	addTrain, .-addTrain
	.align	2
	.global	saveSensorFlip
	.syntax unified
	.arm
	.fpu softvfp
	.type	saveSensorFlip, %function
saveSensorFlip:
.LFB6:
	.loc 1 102 0
	.cfi_startproc
	@ Function supports interworking.
	@ args = 0, pretend = 0, frame = 24
	@ frame_needed = 1, uses_anonymous_args = 0
	push	{fp, lr}
	.cfi_def_cfa_offset 8
	.cfi_offset 11, -8
	.cfi_offset 14, -4
	add	fp, sp, #4
	.cfi_def_cfa 11, 4
	sub	sp, sp, #24
	str	r0, [fp, #-16]
	strh	r1, [fp, #-20]	@ movhi
	str	r2, [fp, #-24]
	.loc 1 105 0
	mov	r3, #0
	str	r3, [fp, #-8]
	b	.L27
.L31:
	.loc 1 106 0
	ldr	r2, [fp, #-16]
	ldr	r3, [fp, #-8]
	add	r3, r3, #14
	lsl	r3, r3, #2
	add	r3, r2, r3
	ldrb	r2, [r3, #6]	@ zero_extendqisi2
	ldrb	r3, [fp, #-20]	@ zero_extendqisi2
	cmp	r2, r3
	bne	.L28
	.loc 1 106 0 is_stmt 0 discriminator 1
	ldr	r2, [fp, #-16]
	ldr	r3, [fp, #-8]
	add	r3, r3, #14
	lsl	r3, r3, #2
	add	r3, r2, r3
	ldrb	r3, [r3, #7]
	and	r3, r3, #15
	and	r2, r3, #255
	ldrb	r3, [fp, #-19]
	and	r3, r3, #15
	and	r3, r3, #255
	cmp	r2, r3
	bne	.L28
	.loc 1 106 0 discriminator 2
	ldr	r2, [fp, #-16]
	ldr	r3, [fp, #-8]
	add	r3, r3, #14
	lsl	r3, r3, #2
	add	r3, r2, r3
	ldrb	r3, [r3, #6]	@ zero_extendqisi2
	cmp	r3, #5
	beq	.L28
	.loc 1 107 0 is_stmt 1
	ldr	r2, [fp, #-24]
	ldr	r1, [fp, #-8]
	ldr	r0, [fp, #-16]
	bl	doSensorHit(PLT)
	.loc 1 108 0
	ldr	r3, [fp, #-8]
	b	.L29
.L28:
	.loc 1 109 0
	ldr	r2, [fp, #-16]
	ldr	r3, [fp, #-8]
	lsl	r3, r3, #2
	add	r3, r2, r3
	ldrb	r2, [r3, #64]	@ zero_extendqisi2
	ldrb	r3, [fp, #-20]	@ zero_extendqisi2
	cmp	r2, r3
	bne	.L30
	.loc 1 109 0 is_stmt 0 discriminator 1
	ldr	r2, [fp, #-16]
	ldr	r3, [fp, #-8]
	lsl	r3, r3, #2
	add	r3, r2, r3
	ldrb	r3, [r3, #65]
	and	r3, r3, #15
	and	r2, r3, #255
	ldrb	r3, [fp, #-19]
	and	r3, r3, #15
	and	r3, r3, #255
	cmp	r2, r3
	bne	.L30
	.loc 1 109 0 discriminator 2
	ldr	r2, [fp, #-16]
	ldr	r3, [fp, #-8]
	lsl	r3, r3, #2
	add	r3, r2, r3
	ldrb	r3, [r3, #64]	@ zero_extendqisi2
	cmp	r3, #5
	beq	.L30
	.loc 1 110 0 is_stmt 1
	ldr	r2, [fp, #-16]
	ldr	r3, [fp, #-8]
	add	r3, r3, #14
	lsl	r3, r3, #2
	add	r3, r2, r3
	ldr	r1, [fp, #-16]
	ldr	r2, [fp, #-8]
	lsl	r2, r2, #2
	add	r2, r1, r2
	ldrh	r2, [r2, #64]	@ movhi
	strh	r2, [r3, #6]	@ movhi
	.loc 1 111 0
	ldr	r3, [fp, #-8]
	b	.L29
.L30:
	.loc 1 105 0 discriminator 2
	ldr	r3, [fp, #-8]
	add	r3, r3, #1
	str	r3, [fp, #-8]
.L27:
	.loc 1 105 0 is_stmt 0 discriminator 1
	ldr	r3, [fp, #-8]
	cmp	r3, #30
	ble	.L31
	.loc 1 115 0 is_stmt 1
	mvn	r3, #0
.L29:
	.loc 1 116 0
	mov	r0, r3
	sub	sp, fp, #4
	.cfi_def_cfa 13, 8
	@ sp needed
	pop	{fp, lr}
	.cfi_restore 14
	.cfi_restore 11
	.cfi_def_cfa_offset 0
	bx	lr
	.cfi_endproc
.LFE6:
	.size	saveSensorFlip, .-saveSensorFlip
	.align	2
	.global	saveSwitchFlip
	.syntax unified
	.arm
	.fpu softvfp
	.type	saveSwitchFlip, %function
saveSwitchFlip:
.LFB7:
	.loc 1 119 0
	.cfi_startproc
	@ Function supports interworking.
	@ args = 0, pretend = 0, frame = 24
	@ frame_needed = 1, uses_anonymous_args = 0
	push	{r4, fp, lr}
	.cfi_def_cfa_offset 12
	.cfi_offset 4, -12
	.cfi_offset 11, -8
	.cfi_offset 14, -4
	add	fp, sp, #8
	.cfi_def_cfa 11, 4
	sub	sp, sp, #28
	str	r0, [fp, #-24]
	str	r1, [fp, #-28]
	str	r2, [fp, #-32]
	.loc 1 121 0
	ldr	r3, [fp, #-32]
	cmp	r3, #0
	beq	.L33
	.loc 1 122 0
	ldr	r3, [fp, #-24]
	ldr	r3, [r3, #2668]
	mov	r1, #1
	ldr	r2, [fp, #-28]
	lsl	r2, r1, r2
	orr	r2, r3, r2
	ldr	r3, [fp, #-24]
	str	r2, [r3, #2668]
	b	.L34
.L33:
	.loc 1 124 0
	ldr	r3, [fp, #-24]
	ldr	r3, [r3, #2668]
	mov	r1, #1
	ldr	r2, [fp, #-28]
	lsl	r2, r1, r2
	mvn	r2, r2
	and	r2, r2, r3
	ldr	r3, [fp, #-24]
	str	r2, [r3, #2668]
.L34:
	.loc 1 126 0
	mov	r3, #0
	str	r3, [fp, #-16]
	b	.L35
.L36:
	.loc 1 127 0 discriminator 3
	ldr	r3, [fp, #-24]
	ldr	r1, [r3, #2668]
	ldr	r3, [fp, #-24]
	ldr	r2, [fp, #-16]
	add	r2, r2, #14
	lsl	r4, r2, #2
	add	r4, r3, r4
	ldr	r2, [fp, #-24]
	ldr	r3, [fp, #-16]
	add	r3, r3, #14
	lsl	r3, r3, #2
	add	r3, r2, r3
	ldrh	r2, [r3, #6]
	mov	r3, #0
	lsl	r2, r2, #16
	lsr	r3, r3, #16
	orr	r3, r3, r2
	ror	r3, r3, #16
	mov	r0, r3
	bl	getNextSensor(PLT)
	mov	r3, r0	@ movhi
	strh	r3, [r4, #6]	@ movhi
	.loc 1 128 0 discriminator 3
	ldr	r3, [fp, #-24]
	ldr	r1, [r3, #2668]
	ldr	r3, [fp, #-24]
	ldr	r2, [fp, #-16]
	lsl	r4, r2, #2
	add	r4, r3, r4
	ldr	r2, [fp, #-24]
	ldr	r3, [fp, #-16]
	lsl	r3, r3, #2
	add	r3, r2, r3
	ldrh	r2, [r3, #64]
	mov	r3, #0
	lsl	r2, r2, #16
	lsr	r3, r3, #16
	orr	r3, r3, r2
	ror	r3, r3, #16
	mov	r0, r3
	bl	getNextSensor(PLT)
	mov	r3, r0	@ movhi
	strh	r3, [r4, #64]	@ movhi
	.loc 1 126 0 discriminator 3
	ldr	r3, [fp, #-16]
	add	r3, r3, #1
	str	r3, [fp, #-16]
.L35:
	.loc 1 126 0 is_stmt 0 discriminator 1
	ldr	r3, [fp, #-16]
	cmp	r3, #30
	ble	.L36
	.loc 1 130 0 is_stmt 1
	nop
	sub	sp, fp, #8
	.cfi_def_cfa 13, 12
	@ sp needed
	pop	{r4, fp, lr}
	.cfi_restore 14
	.cfi_restore 11
	.cfi_restore 4
	.cfi_def_cfa_offset 0
	bx	lr
	.cfi_endproc
.LFE7:
	.size	saveSwitchFlip, .-saveSwitchFlip
	.align	2
	.global	saveSpeedChange
	.syntax unified
	.arm
	.fpu softvfp
	.type	saveSpeedChange, %function
saveSpeedChange:
.LFB8:
	.loc 1 133 0
	.cfi_startproc
	@ Function supports interworking.
	@ args = 0, pretend = 0, frame = 16
	@ frame_needed = 1, uses_anonymous_args = 0
	@ link register save eliminated.
	str	fp, [sp, #-4]!
	.cfi_def_cfa_offset 4
	.cfi_offset 11, -4
	add	fp, sp, #0
	.cfi_def_cfa_register 11
	sub	sp, sp, #20
	str	r0, [fp, #-8]
	str	r1, [fp, #-12]
	str	r2, [fp, #-16]
	str	r3, [fp, #-20]
	.loc 1 134 0
	ldr	r2, [fp, #-8]
	ldr	r3, [fp, #-12]
	add	r3, r3, #108
	lsl	r3, r3, #2
	add	r3, r2, r3
	ldr	r2, [fp, #-16]
	str	r2, [r3, #4]
	.loc 1 135 0
	ldr	r3, [fp, #-8]
	ldr	r2, [fp, #-12]
	add	r2, r2, #140
	ldr	r1, [fp, #-20]
	str	r1, [r3, r2, lsl #2]
	.loc 1 136 0
	ldr	r3, [fp, #-8]
	ldr	r2, [fp, #-12]
	add	r2, r2, #636
	mov	r1, #0
	str	r1, [r3, r2, lsl #2]
	.loc 1 137 0
	nop
	add	sp, fp, #0
	.cfi_def_cfa_register 13
	@ sp needed
	ldr	fp, [sp], #4
	.cfi_restore 11
	.cfi_def_cfa_offset 0
	bx	lr
	.cfi_endproc
.LFE8:
	.size	saveSpeedChange, .-saveSpeedChange
	.align	2
	.global	getTrainPosition
	.syntax unified
	.arm
	.fpu softvfp
	.type	getTrainPosition, %function
getTrainPosition:
.LFB9:
	.loc 1 140 0
	.cfi_startproc
	@ Function supports interworking.
	@ args = 0, pretend = 0, frame = 32
	@ frame_needed = 1, uses_anonymous_args = 0
	@ link register save eliminated.
	str	fp, [sp, #-4]!
	.cfi_def_cfa_offset 4
	.cfi_offset 11, -4
	add	fp, sp, #0
	.cfi_def_cfa_register 11
	sub	sp, sp, #36
	str	r0, [fp, #-24]
	str	r1, [fp, #-28]
	str	r2, [fp, #-32]
	str	r3, [fp, #-36]
	.loc 1 143 0
	ldr	r2, [fp, #-28]
	ldr	r3, [fp, #-32]
	lsl	r3, r3, #1
	add	r3, r2, r3
	ldrh	r3, [r3]	@ movhi
	strh	r3, [fp, #-20]	@ movhi
	.loc 1 145 0
	ldr	r2, [fp, #-28]
	ldr	r3, [fp, #-32]
	add	r3, r3, #46
	lsl	r3, r3, #2
	add	r3, r2, r3
	ldr	r3, [r3, #4]
	ldr	r2, [fp, #-36]
	sub	r3, r2, r3
	str	r3, [fp, #-8]
	.loc 1 146 0
	ldr	r2, [fp, #-28]
	ldr	r3, [fp, #-32]
	add	r3, r3, #108
	lsl	r3, r3, #2
	add	r3, r2, r3
	ldr	r0, [r3, #4]
	ldr	r1, [fp, #-28]
	ldr	r2, [fp, #-32]
	mov	r3, r2
	lsl	r3, r3, #4
	sub	r3, r3, r2
	add	r3, r3, r0
	add	r3, r3, #170
	lsl	r3, r3, #2
	add	r3, r1, r3
	ldr	r3, [r3, #4]
	ldr	r2, [fp, #-8]
	mul	r3, r2, r3
	ldr	r2, .L40
	smull	r1, r2, r3, r2
	asr	r2, r2, #5
	asr	r3, r3, #31
	sub	r3, r2, r3
	str	r3, [fp, #-12]
	.loc 1 147 0
	ldr	r2, [fp, #-28]
	ldr	r3, [fp, #-32]
	add	r3, r3, #14
	lsl	r3, r3, #2
	add	r3, r2, r3
	ldrh	r3, [r3, #6]	@ movhi
	strh	r3, [fp, #-18]	@ movhi
	.loc 1 148 0
	ldr	r2, [fp, #-28]
	ldr	r3, [fp, #-32]
	lsl	r3, r3, #2
	add	r3, r2, r3
	ldrh	r3, [r3, #64]	@ movhi
	strh	r3, [fp, #-16]	@ movhi
	.loc 1 150 0
	ldr	r3, [fp, #-24]
	mov	ip, r3
	sub	r3, fp, #20
	ldm	r3, {r0, r1, r2}
	stm	ip, {r0, r1, r2}
	.loc 1 151 0
	ldr	r0, [fp, #-24]
	add	sp, fp, #0
	.cfi_def_cfa_register 13
	@ sp needed
	ldr	fp, [sp], #4
	.cfi_restore 11
	.cfi_def_cfa_offset 0
	bx	lr
.L41:
	.align	2
.L40:
	.word	1374389535
	.cfi_endproc
.LFE9:
	.size	getTrainPosition, .-getTrainPosition
	.align	2
	.global	getTrainVelocity
	.syntax unified
	.arm
	.fpu softvfp
	.type	getTrainVelocity, %function
getTrainVelocity:
.LFB10:
	.loc 1 154 0
	.cfi_startproc
	@ Function supports interworking.
	@ args = 0, pretend = 0, frame = 16
	@ frame_needed = 1, uses_anonymous_args = 0
	@ link register save eliminated.
	str	fp, [sp, #-4]!
	.cfi_def_cfa_offset 4
	.cfi_offset 11, -4
	add	fp, sp, #0
	.cfi_def_cfa_register 11
	sub	sp, sp, #20
	str	r0, [fp, #-8]
	str	r1, [fp, #-12]
	str	r2, [fp, #-16]
	.loc 1 157 0
	ldr	r2, [fp, #-8]
	ldr	r3, [fp, #-12]
	add	r3, r3, #108
	lsl	r3, r3, #2
	add	r3, r2, r3
	ldr	r0, [r3, #4]
	ldr	r1, [fp, #-8]
	ldr	r2, [fp, #-12]
	mov	r3, r2
	lsl	r3, r3, #4
	sub	r3, r3, r2
	add	r3, r3, r0
	add	r3, r3, #170
	lsl	r3, r3, #2
	add	r3, r1, r3
	ldr	r3, [r3, #4]
	.loc 1 158 0
	mov	r0, r3
	add	sp, fp, #0
	.cfi_def_cfa_register 13
	@ sp needed
	ldr	fp, [sp], #4
	.cfi_restore 11
	.cfi_def_cfa_offset 0
	bx	lr
	.cfi_endproc
.LFE10:
	.size	getTrainVelocity, .-getTrainVelocity
.Letext0:
	.file 2 "src/util/trains/track_data.h"
	.file 3 "src/util/trains/switches.h"
	.file 4 "src/util/trains/sensors.h"
	.file 5 "src/util/trains/track.h"