	.cpu arm920t
	.eabi_attribute 20, 1
	.eabi_attribute 21, 1
	.eabi_attribute 23, 3
	.eabi_attribute 24, 1
	.eabi_attribute 25, 1
	.eabi_attribute 26, 1
	.eabi_attribute 30, 6
	.eabi_attribute 34, 0
	.eabi_attribute 18, 4
	.file	"clock_server.c"
	.text
.Ltext0:
	.cfi_sections	.debug_frame
	.align	2
	.syntax unified
	.arm
	.fpu softvfp
	.type	pqInit, %function
pqInit:
.LFB1:
	.file 1 "src/util/data/pq.h"
	.loc 1 24 0
	.cfi_startproc
	@ Function supports interworking.
	@ args = 0, pretend = 0, frame = 8
	@ frame_needed = 1, uses_anonymous_args = 0
	@ link register save eliminated.
	str	fp, [sp, #-4]!
	.cfi_def_cfa_offset 4
	.cfi_offset 11, -4
	add	fp, sp, #0
	.cfi_def_cfa_register 11
	sub	sp, sp, #12
	str	r0, [fp, #-8]
	.loc 1 24 0
	ldr	r3, [fp, #-8]
	mov	r2, #0
	str	r2, [r3]
	nop
	add	sp, fp, #0
	.cfi_def_cfa_register 13
	@ sp needed
	ldr	fp, [sp], #4
	.cfi_restore 11
	.cfi_def_cfa_offset 0
	bx	lr
	.cfi_endproc
.LFE1:
	.size	pqInit, .-pqInit
	.align	2
	.syntax unified
	.arm
	.fpu softvfp
	.type	pqSize, %function
pqSize:
.LFB2:
	.loc 1 35 0
	.cfi_startproc
	@ Function supports interworking.
	@ args = 0, pretend = 0, frame = 8
	@ frame_needed = 1, uses_anonymous_args = 0
	@ link register save eliminated.
	str	fp, [sp, #-4]!
	.cfi_def_cfa_offset 4
	.cfi_offset 11, -4
	add	fp, sp, #0
	.cfi_def_cfa_register 11
	sub	sp, sp, #12
	str	r0, [fp, #-8]
	.loc 1 35 0
	ldr	r3, [fp, #-8]
	ldr	r3, [r3]
	mov	r0, r3
	add	sp, fp, #0
	.cfi_def_cfa_register 13
	@ sp needed
	ldr	fp, [sp], #4
	.cfi_restore 11
	.cfi_def_cfa_offset 0
	bx	lr
	.cfi_endproc
.LFE2:
	.size	pqSize, .-pqSize
	.align	2
	.syntax unified
	.arm
	.fpu softvfp
	.type	pqGetMin, %function
pqGetMin:
.LFB3:
	.loc 1 45 0
	.cfi_startproc
	@ Function supports interworking.
	@ args = 0, pretend = 0, frame = 8
	@ frame_needed = 1, uses_anonymous_args = 0
	@ link register save eliminated.
	str	fp, [sp, #-4]!
	.cfi_def_cfa_offset 4
	.cfi_offset 11, -4
	add	fp, sp, #0
	.cfi_def_cfa_register 11
	sub	sp, sp, #12
	str	r0, [fp, #-8]
	.loc 1 45 0
	ldr	r3, [fp, #-8]
	ldr	r3, [r3, #8]
	mov	r0, r3
	add	sp, fp, #0
	.cfi_def_cfa_register 13
	@ sp needed
	ldr	fp, [sp], #4
	.cfi_restore 11
	.cfi_def_cfa_offset 0
	bx	lr
	.cfi_endproc
.LFE3:
	.size	pqGetMin, .-pqGetMin
	.align	2
	.syntax unified
	.arm
	.fpu softvfp
	.type	pqGetMinPriority, %function
pqGetMinPriority:
.LFB4:
	.loc 1 55 0
	.cfi_startproc
	@ Function supports interworking.
	@ args = 0, pretend = 0, frame = 8
	@ frame_needed = 1, uses_anonymous_args = 0
	@ link register save eliminated.
	str	fp, [sp, #-4]!
	.cfi_def_cfa_offset 4
	.cfi_offset 11, -4
	add	fp, sp, #0
	.cfi_def_cfa_register 11
	sub	sp, sp, #12
	str	r0, [fp, #-8]
	.loc 1 55 0
	ldr	r3, [fp, #-8]
	ldr	r3, [r3, #4]
	mov	r0, r3
	add	sp, fp, #0
	.cfi_def_cfa_register 13
	@ sp needed
	ldr	fp, [sp], #4
	.cfi_restore 11
	.cfi_def_cfa_offset 0
	bx	lr
	.cfi_endproc
.LFE4:
	.size	pqGetMinPriority, .-pqGetMinPriority
	.section	.rodata
	.align	2
.LC0:
	.ascii	"CLOCK\000"
	.text
	.align	2
	.syntax unified
	.arm
	.fpu softvfp
	.type	initialize, %function
initialize:
.LFB5:
	.file 2 "src/tasks/drivers/clock_server.c"
	.loc 2 26 0
	.cfi_startproc
	@ Function supports interworking.
	@ args = 0, pretend = 0, frame = 8
	@ frame_needed = 1, uses_anonymous_args = 0
	push	{r4, fp, lr}
	.cfi_def_cfa_offset 12
	.cfi_offset 4, -12
	.cfi_offset 11, -8
	.cfi_offset 14, -4
	add	fp, sp, #8
	.cfi_def_cfa 11, 4
	sub	sp, sp, #12
	str	r0, [fp, #-16]
	ldr	r4, .L9
.LPIC1:
	add	r4, pc, r4
	.loc 2 27 0
	ldr	r3, .L9+4
.LPIC0:
	add	r3, pc, r3
	mov	r0, r3
	bl	RegisterAs(PLT)
	.loc 2 28 0
	ldr	r3, [fp, #-16]
	mov	r2, #0
	str	r2, [r3]
	.loc 2 29 0
	ldr	r3, [fp, #-16]
	add	r3, r3, #4
	mov	r0, r3
	bl	pqInit(PLT)
	.loc 2 31 0
	mov	r2, #4
	ldr	r3, .L9+8
	ldr	r3, [r4, r3]
	mov	r1, r3
	mov	r0, #1
	bl	CreateSize(PLT)
	.loc 2 32 0
	nop
	sub	sp, fp, #8
	.cfi_def_cfa 13, 12
	@ sp needed
	pop	{r4, fp, lr}
	.cfi_restore 14
	.cfi_restore 11
	.cfi_restore 4
	.cfi_def_cfa_offset 0
	bx	lr
.L10:
	.align	2
.L9:
	.word	_GLOBAL_OFFSET_TABLE_-(.LPIC1+8)
	.word	.LC0-(.LPIC0+8)
	.word	clock_courier(GOT)
	.cfi_endproc
.LFE5:
	.size	initialize, .-initialize
	.section	.rodata
	.align	2
.LC1:
	.ascii	"src/tasks/drivers/clock_server.c\000"
	.align	2
.LC2:
	.ascii	"%s@%s:%d\012\015\000"
	.align	2
.LC3:
	.ascii	"ERROR: Invalid code (%d) passed to clock server fro"
	.ascii	"m %d.\000"
	.align	2
.LC4:
	.ascii	"\012\015\000"
	.text
	.align	2
	.syntax unified
	.arm
	.fpu softvfp
	.type	handle, %function
handle:
.LFB6:
	.loc 2 35 0
	.cfi_startproc
	@ Function supports interworking.
	@ args = 0, pretend = 0, frame = 16
	@ frame_needed = 1, uses_anonymous_args = 0
	push	{fp, lr}
	.cfi_def_cfa_offset 8
	.cfi_offset 11, -8
	.cfi_offset 14, -4
	add	fp, sp, #4
	.cfi_def_cfa 11, 4
	sub	sp, sp, #16
	str	r0, [fp, #-8]
	str	r1, [fp, #-12]
	str	r2, [fp, #-16]
	str	r3, [fp, #-20]
	.loc 2 37 0
	ldr	r3, [fp, #-16]
	ldrb	r3, [r3, #4]	@ zero_extendqisi2
	cmp	r3, #3
	addls	pc, pc, r3, asl #2
	b	.L12
.L14:
	b	.L13
	b	.L15
	b	.L16
	b	.L17
	.p2align 1
.L13:
	.loc 2 39 0
	mov	r2, #0
	mov	r1, #0
	ldr	r0, [fp, #-12]
	bl	Reply(PLT)
	.loc 2 40 0
	ldr	r3, [fp, #-8]
	ldr	r3, [r3]
	add	r2, r3, #1
	ldr	r3, [fp, #-8]
	str	r2, [r3]
	.loc 2 41 0
	b	.L18
.L20:
	.loc 2 42 0
	ldr	r3, [fp, #-8]
	add	r3, r3, #4
	mov	r0, r3
	bl	pqGetMin(PLT)
	mov	r3, r0
	mov	r2, #0
	mov	r1, #0
	mov	r0, r3
	bl	Reply(PLT)
	.loc 2 43 0
	ldr	r3, [fp, #-8]
	add	r3, r3, #4
	mov	r0, r3
	bl	pqPop(PLT)
.L18:
	.loc 2 41 0
	ldr	r3, [fp, #-8]
	add	r3, r3, #4
	mov	r0, r3
	bl	pqSize(PLT)
	mov	r3, r0
	cmp	r3, #0
	beq	.L22
	.loc 2 41 0 is_stmt 0 discriminator 1
	ldr	r3, [fp, #-8]
	add	r3, r3, #4
	mov	r0, r3
	bl	pqGetMinPriority(PLT)
	mov	r2, r0
	ldr	r3, [fp, #-8]
	ldr	r3, [r3]
	cmp	r2, r3
	blt	.L20
	.loc 2 45 0 is_stmt 1
	b	.L22
.L15:
	.loc 2 47 0
	ldr	r3, [fp, #-8]
	add	r0, r3, #4
	ldr	r3, [fp, #-16]
	ldr	r2, [r3]
	ldr	r3, [fp, #-8]
	ldr	r3, [r3]
	add	r3, r2, r3
	ldr	r2, [fp, #-12]
	mov	r1, r3
	bl	pqInsert(PLT)
	.loc 2 48 0
	b	.L21
.L16:
	.loc 2 50 0
	ldr	r3, [fp, #-8]
	add	r0, r3, #4
	ldr	r3, [fp, #-16]
	ldr	r3, [r3]
	ldr	r2, [fp, #-12]
	mov	r1, r3
	bl	pqInsert(PLT)
	.loc 2 51 0
	b	.L21
.L17:
	.loc 2 53 0
	ldr	r3, [fp, #-8]
	mov	r2, #4
	mov	r1, r3
	ldr	r0, [fp, #-12]
	bl	Reply(PLT)
	.loc 2 54 0
	b	.L21
.L12:
	.loc 2 56 0
	mov	r3, #56
	ldr	r2, .L23
.LPIC2:
	add	r2, pc, r2
	ldr	r1, .L23+4
.LPIC3:
	add	r1, pc, r1
	ldr	r0, .L23+8
.LPIC4:
	add	r0, pc, r0
	bl	tfp_dprintf(PLT)
	ldr	r3, [fp, #-16]
	ldrb	r3, [r3, #4]	@ zero_extendqisi2
	ldr	r2, [fp, #-12]
	mov	r1, r3
	ldr	r3, .L23+12
.LPIC5:
	add	r3, pc, r3
	mov	r0, r3
	bl	tfp_dprintf(PLT)
	ldr	r3, .L23+16
.LPIC6:
	add	r3, pc, r3
	mov	r0, r3
	bl	tfp_dprintf(PLT)
	.loc 2 58 0
	b	.L21
.L22:
	.loc 2 45 0
	nop
.L21:
	.loc 2 58 0
	nop
	sub	sp, fp, #4
	.cfi_def_cfa 13, 8
	@ sp needed
	pop	{fp, lr}
	.cfi_restore 14
	.cfi_restore 11
	.cfi_def_cfa_offset 0
	bx	lr
.L24:
	.align	2
.L23:
	.word	__func__.4509-(.LPIC2+8)
	.word	.LC1-(.LPIC3+8)
	.word	.LC2-(.LPIC4+8)
	.word	.LC3-(.LPIC5+8)
	.word	.LC4-(.LPIC6+8)
	.cfi_endproc
.LFE6:
	.size	handle, .-handle
	.align	2
	.global	sendTick
	.syntax unified
	.arm
	.fpu softvfp
	.type	sendTick, %function
sendTick:
.LFB7:
	.loc 2 61 0
	.cfi_startproc
	@ Function supports interworking.
	@ args = 0, pretend = 0, frame = 16
	@ frame_needed = 1, uses_anonymous_args = 0
	push	{fp, lr}
	.cfi_def_cfa_offset 8
	.cfi_offset 11, -8
	.cfi_offset 14, -4
	add	fp, sp, #4
	.cfi_def_cfa 11, 4
	sub	sp, sp, #24
	str	r0, [fp, #-16]
	.loc 2 63 0
	mov	r3, #0
	strb	r3, [fp, #-8]
	.loc 2 65 0
	sub	r1, fp, #12
	mov	r3, #0
	str	r3, [sp]
	mov	r3, #0
	mov	r2, #8
	ldr	r0, [fp, #-16]
	bl	Send(PLT)
	.loc 2 66 0
	nop
	sub	sp, fp, #4
	.cfi_def_cfa 13, 8
	@ sp needed
	pop	{fp, lr}
	.cfi_restore 14
	.cfi_restore 11
	.cfi_def_cfa_offset 0
	bx	lr
	.cfi_endproc
.LFE7:
	.size	sendTick, .-sendTick
	.align	2
	.global	sendDelay
	.syntax unified
	.arm
	.fpu softvfp
	.type	sendDelay, %function
sendDelay:
.LFB8:
	.loc 2 69 0
	.cfi_startproc
	@ Function supports interworking.
	@ args = 0, pretend = 0, frame = 16
	@ frame_needed = 1, uses_anonymous_args = 0
	push	{fp, lr}
	.cfi_def_cfa_offset 8
	.cfi_offset 11, -8
	.cfi_offset 14, -4
	add	fp, sp, #4
	.cfi_def_cfa 11, 4
	sub	sp, sp, #24
	str	r0, [fp, #-16]
	str	r1, [fp, #-20]
	.loc 2 71 0
	ldr	r3, [fp, #-20]
	str	r3, [fp, #-12]
	.loc 2 72 0
	mov	r3, #1
	strb	r3, [fp, #-8]
	.loc 2 74 0
	sub	r1, fp, #12
	mov	r3, #0
	str	r3, [sp]
	mov	r3, #0
	mov	r2, #8
	ldr	r0, [fp, #-16]
	bl	Send(PLT)
	.loc 2 75 0
	nop
	sub	sp, fp, #4
	.cfi_def_cfa 13, 8
	@ sp needed
	pop	{fp, lr}
	.cfi_restore 14
	.cfi_restore 11
	.cfi_def_cfa_offset 0
	bx	lr
	.cfi_endproc
.LFE8:
	.size	sendDelay, .-sendDelay
	.align	2
	.global	sendDelayUntil
	.syntax unified
	.arm
	.fpu softvfp
	.type	sendDelayUntil, %function
sendDelayUntil:
.LFB9:
	.loc 2 78 0
	.cfi_startproc
	@ Function supports interworking.
	@ args = 0, pretend = 0, frame = 16
	@ frame_needed = 1, uses_anonymous_args = 0
	push	{fp, lr}
	.cfi_def_cfa_offset 8
	.cfi_offset 11, -8
	.cfi_offset 14, -4
	add	fp, sp, #4
	.cfi_def_cfa 11, 4
	sub	sp, sp, #24
	str	r0, [fp, #-16]
	str	r1, [fp, #-20]
	.loc 2 80 0
	ldr	r3, [fp, #-20]
	str	r3, [fp, #-12]
	.loc 2 81 0
	mov	r3, #2
	strb	r3, [fp, #-8]
	.loc 2 83 0
	sub	r1, fp, #12
	mov	r3, #0
	str	r3, [sp]
	mov	r3, #0
	mov	r2, #8
	ldr	r0, [fp, #-16]
	bl	Send(PLT)
	.loc 2 84 0
	nop
	sub	sp, fp, #4
	.cfi_def_cfa 13, 8
	@ sp needed
	pop	{fp, lr}
	.cfi_restore 14
	.cfi_restore 11
	.cfi_def_cfa_offset 0
	bx	lr
	.cfi_endproc
.LFE9:
	.size	sendDelayUntil, .-sendDelayUntil
	.align	2
	.global	sendGetTime
	.syntax unified
	.arm
	.fpu softvfp
	.type	sendGetTime, %function
sendGetTime:
.LFB10:
	.loc 2 87 0
	.cfi_startproc
	@ Function supports interworking.
	@ args = 0, pretend = 0, frame = 24
	@ frame_needed = 1, uses_anonymous_args = 0
	push	{fp, lr}
	.cfi_def_cfa_offset 8
	.cfi_offset 11, -8
	.cfi_offset 14, -4
	add	fp, sp, #4
	.cfi_def_cfa 11, 4
	sub	sp, sp, #32
	str	r0, [fp, #-24]
	.loc 2 91 0
	mov	r3, #3
	strb	r3, [fp, #-8]
	.loc 2 93 0
	sub	r2, fp, #16
	sub	r1, fp, #12
	mov	r3, #4
	str	r3, [sp]
	mov	r3, r2
	mov	r2, #8
	ldr	r0, [fp, #-24]
	bl	Send(PLT)
	.loc 2 95 0
	ldr	r3, [fp, #-16]
	.loc 2 96 0
	mov	r0, r3
	sub	sp, fp, #4
	.cfi_def_cfa 13, 8
	@ sp needed
	pop	{fp, lr}
	.cfi_restore 14
	.cfi_restore 11
	.cfi_def_cfa_offset 0
	bx	lr
	.cfi_endproc
.LFE10:
	.size	sendGetTime, .-sendGetTime
	.align	2
	.syntax unified
	.arm
	.fpu softvfp
	.type	server_initialize, %function
server_initialize:
.LFB11:
	.loc 2 98 0
	.cfi_startproc
	@ Function supports interworking.
	@ args = 0, pretend = 0, frame = 8
	@ frame_needed = 1, uses_anonymous_args = 0
	push	{fp, lr}
	.cfi_def_cfa_offset 8
	.cfi_offset 11, -8
	.cfi_offset 14, -4
	add	fp, sp, #4
	.cfi_def_cfa 11, 4
	sub	sp, sp, #8
	str	r0, [fp, #-8]
	.loc 2 98 0
	ldr	r3, [fp, #-8]
	mov	r0, r3
	bl	initialize(PLT)
	nop
	sub	sp, fp, #4
	.cfi_def_cfa 13, 8
	@ sp needed
	pop	{fp, lr}
	.cfi_restore 14
	.cfi_restore 11
	.cfi_def_cfa_offset 0
	bx	lr
	.cfi_endproc
.LFE11:
	.size	server_initialize, .-server_initialize
	.align	2
	.syntax unified
	.arm
	.fpu softvfp
	.type	server_work, %function
server_work:
.LFB12:
	.loc 2 98 0
	.cfi_startproc
	@ Function supports interworking.
	@ args = 0, pretend = 0, frame = 16
	@ frame_needed = 1, uses_anonymous_args = 0
	push	{fp, lr}
	.cfi_def_cfa_offset 8
	.cfi_offset 11, -8
	.cfi_offset 14, -4
	add	fp, sp, #4
	.cfi_def_cfa 11, 4
	sub	sp, sp, #16
	str	r0, [fp, #-16]
	.loc 2 98 0
	ldr	r3, [fp, #-16]
	add	r1, r3, #608
	sub	r3, fp, #12
	mov	r2, #8
	mov	r0, r3
	bl	Receive(PLT)
	str	r0, [fp, #-8]
	ldr	r0, [fp, #-16]
	ldr	r1, [fp, #-12]
	ldr	r3, [fp, #-16]
	add	r2, r3, #608
	ldr	r3, [fp, #-8]
	bl	handle(PLT)
	nop
	sub	sp, fp, #4
	.cfi_def_cfa 13, 8
	@ sp needed
	pop	{fp, lr}
	.cfi_restore 14
	.cfi_restore 11
	.cfi_def_cfa_offset 0
	bx	lr
	.cfi_endproc
.LFE12:
	.size	server_work, .-server_work
	.section	.rodata
	.align	2
.LC5:
	.ascii	"clock_server\000"
	.align	2
.LC6:
	.ascii	"Service %s created with tid %d.\012\015\000"
	.text
	.align	2
	.global	clock_server
	.syntax unified
	.arm
	.fpu softvfp
	.type	clock_server, %function
clock_server:
.LFB13:
	.loc 2 98 0
	.cfi_startproc
	@ Function supports interworking.
	@ args = 0, pretend = 0, frame = 616
	@ frame_needed = 1, uses_anonymous_args = 0
	push	{fp, lr}
	.cfi_def_cfa_offset 8
	.cfi_offset 11, -8
	.cfi_offset 14, -4
	add	fp, sp, #4
	.cfi_def_cfa 11, 4
	sub	sp, sp, #616
	.loc 2 98 0
	bl	Service(PLT)
	bl	MyTid(PLT)
	mov	r3, r0
	mov	r2, r3
	ldr	r3, .L34
.LPIC7:
	add	r3, pc, r3
	mov	r1, r3
	ldr	r3, .L34+4
.LPIC8:
	add	r3, pc, r3
	mov	r0, r3
	bl	tfp_dprintf(PLT)
	sub	r3, fp, #620
	mov	r0, r3
	bl	server_initialize(PLT)
.L33:
	.loc 2 98 0 is_stmt 0 discriminator 2
	sub	r3, fp, #620
	mov	r0, r3
	bl	server_work(PLT)
	b	.L33
.L35:
	.align	2
.L34:
	.word	.LC5-(.LPIC7+8)
	.word	.LC6-(.LPIC8+8)
	.cfi_endproc
.LFE13:
	.size	clock_server, .-clock_server
	.section	.rodata
	.align	2
	.type	__func__.4509, %object
	.size	__func__.4509, 7
__func__.4509:
	.ascii	"handle\000"
	.text
.Letext0:
	.file 3 "src/syscall.h"