	.cpu arm920t
	.eabi_attribute 20, 1
	.eabi_attribute 21, 1
	.eabi_attribute 23, 3
	.eabi_attribute 24, 1
	.eabi_attribute 25, 1
	.eabi_attribute 26, 1
	.eabi_attribute 30, 6
	.eabi_attribute 34, 0
	.eabi_attribute 18, 4
	.file	"tin_server.c"
	.text
.Ltext0:
	.cfi_sections	.debug_frame
	.section	.rodata
	.align	2
.LC0:
	.ascii	"TIN\000"
	.text
	.align	2
	.syntax unified
	.arm
	.fpu softvfp
	.type	initialize, %function
initialize:
.LFB0:
	.file 1 "src/tasks/drivers/tin_server.c"
	.loc 1 24 0
	.cfi_startproc
	@ Function supports interworking.
	@ args = 0, pretend = 0, frame = 8
	@ frame_needed = 1, uses_anonymous_args = 0
	push	{r4, fp, lr}
	.cfi_def_cfa_offset 12
	.cfi_offset 4, -12
	.cfi_offset 11, -8
	.cfi_offset 14, -4
	add	fp, sp, #8
	.cfi_def_cfa 11, 4
	sub	sp, sp, #12
	str	r0, [fp, #-16]
	ldr	r4, .L2
.LPIC1:
	add	r4, pc, r4
	.loc 1 25 0
	ldr	r3, [fp, #-16]
	mov	r2, #0
	str	r2, [r3, #32]
	.loc 1 26 0
	ldr	r3, [fp, #-16]
	mov	r2, #0
	str	r2, [r3, #36]
	.loc 1 27 0
	ldr	r3, [fp, #-16]
	mov	r2, #0
	str	r2, [r3, #296]
	.loc 1 28 0
	ldr	r3, [fp, #-16]
	mov	r2, #0
	str	r2, [r3, #300]
	.loc 1 30 0
	ldr	r3, .L2+4
.LPIC0:
	add	r3, pc, r3
	mov	r0, r3
	bl	RegisterAs(PLT)
	.loc 1 31 0
	mov	r2, #4
	ldr	r3, .L2+8
	ldr	r3, [r4, r3]
	mov	r1, r3
	mov	r0, #1
	bl	CreateSize(PLT)
	.loc 1 32 0
	nop
	sub	sp, fp, #8
	.cfi_def_cfa 13, 12
	@ sp needed
	pop	{r4, fp, lr}
	.cfi_restore 14
	.cfi_restore 11
	.cfi_restore 4
	.cfi_def_cfa_offset 0
	bx	lr
.L3:
	.align	2
.L2:
	.word	_GLOBAL_OFFSET_TABLE_-(.LPIC1+8)
	.word	.LC0-(.LPIC0+8)
	.word	tin_courier(GOT)
	.cfi_endproc
.LFE0:
	.size	initialize, .-initialize
	.align	2
	.syntax unified
	.arm
	.fpu softvfp
	.type	handle, %function
handle:
.LFB1:
	.loc 1 35 0
	.cfi_startproc
	@ Function supports interworking.
	@ args = 0, pretend = 0, frame = 40
	@ frame_needed = 1, uses_anonymous_args = 0
	push	{fp, lr}
	.cfi_def_cfa_offset 8
	.cfi_offset 11, -8
	.cfi_offset 14, -4
	add	fp, sp, #4
	.cfi_def_cfa 11, 4
	sub	sp, sp, #40
	str	r0, [fp, #-32]
	str	r1, [fp, #-36]
	str	r2, [fp, #-40]
	str	r3, [fp, #-44]
	.loc 1 37 0
	ldr	r3, [fp, #-40]
	ldr	r3, [r3]
	cmp	r3, #0
	bge	.L5
	.loc 1 38 0
	ldr	r3, [fp, #-32]
	ldr	r3, [r3, #300]
	cmp	r3, #0
	beq	.L6
.LBB2:
	.loc 1 39 0
	ldr	r3, [fp, #-32]
	ldr	r3, [r3, #296]
	ldr	r2, [fp, #-32]
	add	r3, r2, r3
	ldrb	r3, [r3, #40]	@ zero_extendqisi2
	str	r3, [fp, #-20]
	.loc 1 40 0
	ldr	r3, [fp, #-32]
	ldr	r3, [r3, #296]
	add	r2, r3, #1
	asr	r3, r2, #31
	lsr	r3, r3, #24
	add	r2, r2, r3
	and	r2, r2, #255
	sub	r3, r2, r3
	mov	r2, r3
	ldr	r3, [fp, #-32]
	str	r2, [r3, #296]
	.loc 1 41 0
	ldr	r3, [fp, #-32]
	ldr	r3, [r3, #300]
	sub	r2, r3, #1
	ldr	r3, [fp, #-32]
	str	r2, [r3, #300]
	.loc 1 42 0
	sub	r3, fp, #20
	mov	r2, #4
	mov	r1, r3
	ldr	r0, [fp, #-36]
	bl	Reply(PLT)
.LBE2:
	.loc 1 66 0
	b	.L11
.L6:
	.loc 1 44 0
	ldr	r3, [fp, #-32]
	ldr	r3, [r3, #36]
	cmp	r3, #8
	bne	.L8
.LBB3:
	.loc 1 45 0 discriminator 2
	mvn	r3, #0
	str	r3, [fp, #-24]
	.loc 1 46 0 discriminator 2
	sub	r3, fp, #24
	mov	r2, #4
	mov	r1, r3
	ldr	r0, [fp, #-36]
	bl	Reply(PLT)
.LBE3:
	.loc 1 66 0 discriminator 2
	b	.L11
.L8:
.LBB4:
	.loc 1 48 0
	ldr	r3, [fp, #-32]
	ldr	r2, [r3, #32]
	ldr	r3, [fp, #-32]
	ldr	r3, [r3, #36]
	add	r0, r3, #1
	ldr	r1, [fp, #-32]
	str	r0, [r1, #36]
	add	r3, r2, r3
	str	r3, [fp, #-8]
	.loc 1 49 0
	ldr	r2, [fp, #-8]
	asr	r3, r2, #31
	lsr	r3, r3, #29
	add	r2, r2, r3
	and	r2, r2, #7
	sub	r3, r2, r3
	mov	r1, r3
	ldr	r3, [fp, #-32]
	ldr	r2, [fp, #-36]
	str	r2, [r3, r1, lsl #2]
.LBE4:
	.loc 1 66 0
	b	.L11
.L5:
	.loc 1 53 0
	mov	r2, #0
	mov	r1, #0
	ldr	r0, [fp, #-36]
	bl	Reply(PLT)
	.loc 1 54 0
	ldr	r3, [fp, #-32]
	ldr	r3, [r3, #36]
	cmp	r3, #0
	beq	.L10
.LBB5:
	.loc 1 55 0
	ldr	r3, [fp, #-32]
	ldr	r2, [r3, #32]
	ldr	r3, [fp, #-32]
	ldr	r3, [r3, r2, lsl #2]
	str	r3, [fp, #-12]
	.loc 1 56 0
	ldr	r3, [fp, #-32]
	ldr	r3, [r3, #32]
	add	r2, r3, #1
	asr	r3, r2, #31
	lsr	r3, r3, #29
	add	r2, r2, r3
	and	r2, r2, #7
	sub	r3, r2, r3
	mov	r2, r3
	ldr	r3, [fp, #-32]
	str	r2, [r3, #32]
	.loc 1 57 0
	ldr	r3, [fp, #-32]
	ldr	r3, [r3, #36]
	sub	r2, r3, #1
	ldr	r3, [fp, #-32]
	str	r2, [r3, #36]
	.loc 1 58 0
	ldr	r3, [fp, #-40]
	mov	r2, #4
	mov	r1, r3
	ldr	r0, [fp, #-12]
	bl	Reply(PLT)
.LBE5:
	.loc 1 66 0
	b	.L11
.L10:
	.loc 1 60 0
	ldr	r3, [fp, #-32]
	ldr	r3, [r3, #300]
	cmp	r3, #255
	bgt	.L11
.LBB6:
	.loc 1 61 0
	ldr	r3, [fp, #-32]
	ldr	r2, [r3, #296]
	ldr	r3, [fp, #-32]
	ldr	r3, [r3, #300]
	add	r0, r3, #1
	ldr	r1, [fp, #-32]
	str	r0, [r1, #300]
	add	r3, r2, r3
	str	r3, [fp, #-16]
	.loc 1 62 0
	ldr	r2, [fp, #-16]
	asr	r3, r2, #31
	lsr	r3, r3, #24
	add	r2, r2, r3
	and	r2, r2, #255
	sub	r3, r2, r3
	mov	r1, r3
	ldr	r3, [fp, #-40]
	ldr	r3, [r3]
	and	r2, r3, #255
	ldr	r3, [fp, #-32]
	add	r3, r3, r1
	strb	r2, [r3, #40]
.L11:
.LBE6:
	.loc 1 66 0
	nop
	sub	sp, fp, #4
	.cfi_def_cfa 13, 8
	@ sp needed
	pop	{fp, lr}
	.cfi_restore 14
	.cfi_restore 11
	.cfi_def_cfa_offset 0
	bx	lr
	.cfi_endproc
.LFE1:
	.size	handle, .-handle
	.align	2
	.global	sendTinData
	.syntax unified
	.arm
	.fpu softvfp
	.type	sendTinData, %function
sendTinData:
.LFB2:
	.loc 1 69 0
	.cfi_startproc
	@ Function supports interworking.
	@ args = 0, pretend = 0, frame = 16
	@ frame_needed = 1, uses_anonymous_args = 0
	push	{fp, lr}
	.cfi_def_cfa_offset 8
	.cfi_offset 11, -8
	.cfi_offset 14, -4
	add	fp, sp, #4
	.cfi_def_cfa 11, 4
	sub	sp, sp, #24
	str	r0, [fp, #-16]
	str	r1, [fp, #-20]
	.loc 1 71 0
	ldr	r3, [fp, #-20]
	str	r3, [fp, #-8]
	.loc 1 72 0
	sub	r1, fp, #8
	mov	r3, #0
	str	r3, [sp]
	mov	r3, #0
	mov	r2, #4
	ldr	r0, [fp, #-16]
	bl	Send(PLT)
	.loc 1 73 0
	nop
	sub	sp, fp, #4
	.cfi_def_cfa 13, 8
	@ sp needed
	pop	{fp, lr}
	.cfi_restore 14
	.cfi_restore 11
	.cfi_def_cfa_offset 0
	bx	lr
	.cfi_endproc
.LFE2:
	.size	sendTinData, .-sendTinData
	.align	2
	.global	sendTinGetc
	.syntax unified
	.arm
	.fpu softvfp
	.type	sendTinGetc, %function
sendTinGetc:
.LFB3:
	.loc 1 76 0
	.cfi_startproc
	@ Function supports interworking.
	@ args = 0, pretend = 0, frame = 16
	@ frame_needed = 1, uses_anonymous_args = 0
	push	{fp, lr}
	.cfi_def_cfa_offset 8
	.cfi_offset 11, -8
	.cfi_offset 14, -4
	add	fp, sp, #4
	.cfi_def_cfa 11, 4
	sub	sp, sp, #24
	str	r0, [fp, #-16]
	.loc 1 79 0
	mvn	r3, #0
	str	r3, [fp, #-8]
	.loc 1 80 0
	sub	r2, fp, #12
	sub	r1, fp, #8
	mov	r3, #4
	str	r3, [sp]
	mov	r3, r2
	mov	r2, #4
	ldr	r0, [fp, #-16]
	bl	Send(PLT)
	.loc 1 81 0
	ldr	r3, [fp, #-12]
	.loc 1 82 0
	mov	r0, r3
	sub	sp, fp, #4
	.cfi_def_cfa 13, 8
	@ sp needed
	pop	{fp, lr}
	.cfi_restore 14
	.cfi_restore 11
	.cfi_def_cfa_offset 0
	bx	lr
	.cfi_endproc
.LFE3:
	.size	sendTinGetc, .-sendTinGetc
	.align	2
	.syntax unified
	.arm
	.fpu softvfp
	.type	server_initialize, %function
server_initialize:
.LFB4:
	.loc 1 84 0
	.cfi_startproc
	@ Function supports interworking.
	@ args = 0, pretend = 0, frame = 8
	@ frame_needed = 1, uses_anonymous_args = 0
	push	{fp, lr}
	.cfi_def_cfa_offset 8
	.cfi_offset 11, -8
	.cfi_offset 14, -4
	add	fp, sp, #4
	.cfi_def_cfa 11, 4
	sub	sp, sp, #8
	str	r0, [fp, #-8]
	.loc 1 84 0
	ldr	r3, [fp, #-8]
	mov	r0, r3
	bl	initialize(PLT)
	nop
	sub	sp, fp, #4
	.cfi_def_cfa 13, 8
	@ sp needed
	pop	{fp, lr}
	.cfi_restore 14
	.cfi_restore 11
	.cfi_def_cfa_offset 0
	bx	lr
	.cfi_endproc
.LFE4:
	.size	server_initialize, .-server_initialize
	.align	2
	.syntax unified
	.arm
	.fpu softvfp
	.type	server_work, %function
server_work:
.LFB5:
	.loc 1 84 0
	.cfi_startproc
	@ Function supports interworking.
	@ args = 0, pretend = 0, frame = 16
	@ frame_needed = 1, uses_anonymous_args = 0
	push	{fp, lr}
	.cfi_def_cfa_offset 8
	.cfi_offset 11, -8
	.cfi_offset 14, -4
	add	fp, sp, #4
	.cfi_def_cfa 11, 4
	sub	sp, sp, #16
	str	r0, [fp, #-16]
	.loc 1 84 0
	ldr	r3, [fp, #-16]
	add	r1, r3, #304
	sub	r3, fp, #12
	mov	r2, #4
	mov	r0, r3
	bl	Receive(PLT)
	str	r0, [fp, #-8]
	ldr	r0, [fp, #-16]
	ldr	r1, [fp, #-12]
	ldr	r3, [fp, #-16]
	add	r2, r3, #304
	ldr	r3, [fp, #-8]
	bl	handle(PLT)
	nop
	sub	sp, fp, #4
	.cfi_def_cfa 13, 8
	@ sp needed
	pop	{fp, lr}
	.cfi_restore 14
	.cfi_restore 11
	.cfi_def_cfa_offset 0
	bx	lr
	.cfi_endproc
.LFE5:
	.size	server_work, .-server_work
	.section	.rodata
	.align	2
.LC1:
	.ascii	"tin_server\000"
	.align	2
.LC2:
	.ascii	"Service %s created with tid %d.\012\015\000"
	.text
	.align	2
	.global	tin_server
	.syntax unified
	.arm
	.fpu softvfp
	.type	tin_server, %function
tin_server:
.LFB6:
	.loc 1 84 0
	.cfi_startproc
	@ Function supports interworking.
	@ args = 0, pretend = 0, frame = 312
	@ frame_needed = 1, uses_anonymous_args = 0
	push	{fp, lr}
	.cfi_def_cfa_offset 8
	.cfi_offset 11, -8
	.cfi_offset 14, -4
	add	fp, sp, #4
	.cfi_def_cfa 11, 4
	sub	sp, sp, #312
	.loc 1 84 0
	bl	Service(PLT)
	bl	MyTid(PLT)
	mov	r3, r0
	mov	r2, r3
	ldr	r3, .L19
.LPIC2:
	add	r3, pc, r3
	mov	r1, r3
	ldr	r3, .L19+4
.LPIC3:
	add	r3, pc, r3
	mov	r0, r3
	bl	tfp_dprintf(PLT)
	sub	r3, fp, #312
	mov	r0, r3
	bl	server_initialize(PLT)
.L18:
	.loc 1 84 0 is_stmt 0 discriminator 2
	sub	r3, fp, #312
	mov	r0, r3
	bl	server_work(PLT)
	b	.L18
.L20:
	.align	2
.L19:
	.word	.LC1-(.LPIC2+8)
	.word	.LC2-(.LPIC3+8)
	.cfi_endproc
.LFE6:
	.size	tin_server, .-tin_server
.Letext0:
	.file 2 "src/syscall.h"