	.cpu arm920t
	.eabi_attribute 20, 1
	.eabi_attribute 21, 1
	.eabi_attribute 23, 3
	.eabi_attribute 24, 1
	.eabi_attribute 25, 1
	.eabi_attribute 26, 1
	.eabi_attribute 30, 6
	.eabi_attribute 34, 0
	.eabi_attribute 18, 4
	.file	"position.c"
	.text
.Ltext0:
	.cfi_sections	.debug_frame
	.global	__aeabi_fcmplt
	.align	2
	.syntax unified
	.arm
	.fpu softvfp
	.type	float_abs, %function
float_abs:
.LFB2:
	.file 1 "src/tasks/position.c"
	.loc 1 18 0
	.cfi_startproc
	@ Function supports interworking.
	@ args = 0, pretend = 0, frame = 8
	@ frame_needed = 1, uses_anonymous_args = 0
	push	{fp, lr}
	.cfi_def_cfa_offset 8
	.cfi_offset 11, -8
	.cfi_offset 14, -4
	add	fp, sp, #4
	.cfi_def_cfa 11, 4
	sub	sp, sp, #8
	str	r0, [fp, #-8]	@ float
	.loc 1 18 0
	mov	r1, #0
	ldr	r0, [fp, #-8]	@ float
	bl	__aeabi_fcmplt(PLT)
.LVL0:
	mov	r3, r0
	cmp	r3, #0
	beq	.L6
	.loc 1 18 0 is_stmt 0 discriminator 1
	ldr	r3, [fp, #-8]
	eor	r3, r3, #-2147483648
	b	.L4
.L6:
	.loc 1 18 0 discriminator 2
	ldr	r3, [fp, #-8]	@ float
.L4:
	.loc 1 18 0
	mov	r0, r3
	sub	sp, fp, #4
	.cfi_def_cfa 13, 8
	@ sp needed
	pop	{fp, lr}
	.cfi_restore 14
	.cfi_restore 11
	.cfi_def_cfa_offset 0
	bx	lr
	.cfi_endproc
.LFE2:
	.size	float_abs, .-float_abs
	.global	__aeabi_i2f
	.global	__aeabi_f2d
	.global	__aeabi_ddiv
	.global	__aeabi_d2f
	.section	.rodata
	.align	2
.LC0:
	.ascii	"CLOCK\000"
	.align	2
.LC1:
	.ascii	"SENSOR\000"
	.align	2
.LC2:
	.ascii	"SWITCH\000"
	.align	2
.LC3:
	.ascii	"POSITION\000"
	.text
	.align	2
	.syntax unified
	.arm
	.fpu softvfp
	.type	initialize, %function
initialize:
.LFB3:
	.loc 1 21 0 is_stmt 1
	.cfi_startproc
	@ Function supports interworking.
	@ args = 0, pretend = 0, frame = 16
	@ frame_needed = 1, uses_anonymous_args = 0
	push	{r4, fp, lr}
	.cfi_def_cfa_offset 12
	.cfi_offset 4, -12
	.cfi_offset 11, -8
	.cfi_offset 14, -4
	add	fp, sp, #8
	.cfi_def_cfa 11, 4
	sub	sp, sp, #20
	str	r0, [fp, #-24]
	.loc 1 23 0
	ldr	r3, [fp, #-24]
	str	r3, [fp, #-20]
	.loc 1 24 0
	mov	r3, #0
	str	r3, [fp, #-16]
	b	.L8
.L9:
	.loc 1 25 0 discriminator 3
	ldr	r1, [fp, #-20]
	mov	r2, r1
	lsl	r2, r2, #9
	sub	r2, r2, r1
	lsl	r2, r2, #2
	add	r2, r2, r1
	lsl	r3, r2, #9
	sub	r3, r3, r2
	lsl	r3, r3, #1
	add	r3, r3, r1
	lsl	r2, r3, #5
	add	r3, r3, r2
	lsl	r3, r3, #2
	sub	r3, r3, r1
	lsl	r3, r3, #2
	add	r3, r3, r1
	add	r3, r3, #12288
	add	r3, r3, #57
	str	r3, [fp, #-20]
	ldr	r0, [fp, #-20]
	bl	__aeabi_i2f(PLT)
.LVL1:
	mov	r3, r0
	mov	r0, r3
	bl	__aeabi_f2d(PLT)
.LVL2:
	ldr	r2, .L12
	ldr	r3, .L12+4
	bl	__aeabi_ddiv(PLT)
.LVL3:
	mov	r3, r0
	mov	r4, r1
	mov	r0, r3
	mov	r1, r4
	bl	__aeabi_d2f(PLT)
.LVL4:
	mov	r3, r0
	mov	r0, r3
	bl	float_abs(PLT)
	mov	r1, r0
	ldr	r3, [fp, #-24]
	ldr	r2, [fp, #-16]
	str	r1, [r3, r2, lsl #2]	@ float
	.loc 1 24 0 discriminator 3
	ldr	r3, [fp, #-16]
	add	r3, r3, #1
	str	r3, [fp, #-16]
.L8:
	.loc 1 24 0 is_stmt 0 discriminator 1
	ldr	r3, [fp, #-16]
	ldr	r2, .L12+8
	cmp	r3, r2
	ble	.L9
	.loc 1 26 0 is_stmt 1
	mov	r3, #0
	str	r3, [fp, #-16]
	b	.L10
.L11:
	.loc 1 27 0 discriminator 3
	ldr	r1, [fp, #-20]
	mov	r2, r1
	lsl	r2, r2, #9
	sub	r2, r2, r1
	lsl	r2, r2, #2
	add	r2, r2, r1
	lsl	r3, r2, #9
	sub	r3, r3, r2
	lsl	r3, r3, #1
	add	r3, r3, r1
	lsl	r2, r3, #5
	add	r3, r3, r2
	lsl	r3, r3, #2
	sub	r3, r3, r1
	lsl	r3, r3, #2
	add	r3, r3, r1
	add	r3, r3, #12288
	add	r3, r3, #57
	str	r3, [fp, #-20]
	ldr	r0, [fp, #-20]
	bl	__aeabi_i2f(PLT)
.LVL5:
	mov	r3, r0
	mov	r0, r3
	bl	__aeabi_f2d(PLT)
.LVL6:
	ldr	r2, .L12
	ldr	r3, .L12+4
	bl	__aeabi_ddiv(PLT)
.LVL7:
	mov	r3, r0
	mov	r4, r1
	mov	r0, r3
	mov	r1, r4
	bl	__aeabi_d2f(PLT)
.LVL8:
	mov	r3, r0
	mov	r0, r3
	bl	float_abs(PLT)
	mov	r1, r0
	ldr	r2, [fp, #-24]
	ldr	r3, [fp, #-16]
	add	r3, r3, #2432
	add	r3, r3, #8
	str	r1, [r2, r3, lsl #2]	@ float
	.loc 1 26 0 discriminator 3
	ldr	r3, [fp, #-16]
	add	r3, r3, #1
	str	r3, [fp, #-16]
.L10:
	.loc 1 26 0 is_stmt 0 discriminator 1
	ldr	r3, [fp, #-16]
	cmp	r3, #19
	ble	.L11
	.loc 1 29 0 is_stmt 1
	ldr	r3, [fp, #-24]
	mov	r0, r3
	bl	initPositionCalculator(PLT)
	.loc 1 31 0
	ldr	r3, .L12+12
.LPIC0:
	add	r3, pc, r3
	mov	r0, r3
	bl	WhoIs(PLT)
	mov	r2, r0
	ldr	r3, [fp, #-24]
	add	r3, r3, #16384
	str	r2, [r3, #1960]
	.loc 1 33 0
	ldr	r3, .L12+16
.LPIC1:
	add	r3, pc, r3
	mov	r0, r3
	bl	WhoIs(PLT)
	mov	r3, r0
	mov	r0, r3
	bl	registerForSensorFlips(PLT)
	.loc 1 34 0
	ldr	r3, .L12+20
.LPIC2:
	add	r3, pc, r3
	mov	r0, r3
	bl	WhoIs(PLT)
	mov	r3, r0
	mov	r0, r3
	bl	registerForSwitchFlips(PLT)
	.loc 1 36 0
	ldr	r3, .L12+24
.LPIC3:
	add	r3, pc, r3
	mov	r0, r3
	bl	RegisterAs(PLT)
	.loc 1 37 0
	nop
	sub	sp, fp, #8
	.cfi_def_cfa 13, 12
	@ sp needed
	pop	{r4, fp, lr}
	.cfi_restore 14
	.cfi_restore 11
	.cfi_restore 4
	.cfi_def_cfa_offset 0
	bx	lr
.L13:
	.align	2
.L12:
	.word	-4194304
	.word	1105199103
	.word	2439
	.word	.LC0-(.LPIC0+8)
	.word	.LC1-(.LPIC1+8)
	.word	.LC2-(.LPIC2+8)
	.word	.LC3-(.LPIC3+8)
	.cfi_endproc
.LFE3:
	.size	initialize, .-initialize
	.section	.rodata
	.align	2
.LC4:
	.ascii	"Hit %d at %d\012\015\000"
	.align	2
.LC5:
	.ascii	"Expect to hit next sensor at t+%d\012\015\000"
	.text
	.align	2
	.syntax unified
	.arm
	.fpu softvfp
	.type	handle, %function
handle:
.LFB4:
	.loc 1 40 0
	.cfi_startproc
	@ Function supports interworking.
	@ args = 0, pretend = 0, frame = 24
	@ frame_needed = 1, uses_anonymous_args = 0
	push	{r4, r5, fp, lr}
	.cfi_def_cfa_offset 16
	.cfi_offset 4, -16
	.cfi_offset 5, -12
	.cfi_offset 11, -8
	.cfi_offset 14, -4
	add	fp, sp, #12
	.cfi_def_cfa 11, 4
	sub	sp, sp, #32
	str	r0, [fp, #-24]
	str	r1, [fp, #-28]
	str	r2, [fp, #-32]
	str	r3, [fp, #-36]
	.loc 1 41 0
	ldr	r3, [fp, #-36]
	cmp	r3, #4
	bne	.L15
	.loc 1 42 0
	mov	r2, #0
	mov	r1, #0
	ldr	r0, [fp, #-28]
	bl	Reply(PLT)
	.loc 1 43 0
	ldr	r3, [fp, #-32]
	ldr	r3, [r3]
	cmp	r3, #0
	ble	.L19
	.loc 1 44 0
	ldr	r3, [fp, #-32]
	ldr	r4, [r3]
	ldr	r3, [fp, #-24]
	add	r3, r3, #16384
	ldr	r3, [r3, #1960]
	mov	r0, r3
	bl	Time(PLT)
	mov	r3, r0
	mov	r2, r3
	mov	r1, r4
	ldr	r3, .L20
.LPIC4:
	add	r3, pc, r3
	mov	r0, r3
	bl	tfp_dprintf(PLT)
	.loc 1 45 0
	ldr	r4, [fp, #-24]
	ldr	r3, [fp, #-32]
	ldr	r3, [r3]
	sub	r5, r3, #1
	ldr	r3, [fp, #-24]
	add	r3, r3, #16384
	ldr	r3, [r3, #1960]
	mov	r0, r3
	bl	Time(PLT)
	mov	r2, r0
	mov	r3, #1
	str	r3, [sp]
	mov	r3, r2
	mov	r2, #70
	mov	r1, r5
	mov	r0, r4
	bl	registerSensorTrigger(PLT)
	.loc 1 46 0
	ldr	r3, [fp, #-24]
	mov	r1, #70
	mov	r0, r3
	bl	getExpectedNextSensorTime(PLT)
	mov	r3, r0
	mov	r1, r3
	ldr	r3, .L20+4
.LPIC5:
	add	r3, pc, r3
	mov	r0, r3
	bl	tfp_dprintf(PLT)
	.loc 1 55 0
	b	.L19
.L15:
	.loc 1 48 0
	ldr	r3, [fp, #-36]
	cmp	r3, #2
	bne	.L18
	.loc 1 49 0
	ldr	r0, [fp, #-24]
	ldr	r3, [fp, #-32]
	ldr	r3, [r3]
	and	r1, r3, #255
	ldr	r3, [fp, #-32]
	ldr	r3, [r3]
	and	r3, r3, #256
	mov	r2, r3
	bl	registerSwitchState(PLT)
	.loc 1 50 0
	ldr	r3, [fp, #-24]
	mov	r0, r3
	bl	learnPositions(PLT)
	.loc 1 55 0
	b	.L19
.L18:
.LBB2:
	.loc 1 52 0
	ldr	r4, [fp, #-24]
	ldr	r3, [fp, #-24]
	add	r3, r3, #16384
	ldr	r3, [r3, #1960]
	mov	r0, r3
	bl	Time(PLT)
	mov	r3, r0
	sub	r0, fp, #20
	mov	r2, #70
	mov	r1, r4
	bl	getPosition(PLT)
	.loc 1 53 0
	sub	r3, fp, #20
	mov	r2, #8
	mov	r1, r3
	ldr	r0, [fp, #-28]
	bl	Reply(PLT)
.L19:
.LBE2:
	.loc 1 55 0
	nop
	sub	sp, fp, #12
	.cfi_def_cfa 13, 16
	@ sp needed
	pop	{r4, r5, fp, lr}
	.cfi_restore 14
	.cfi_restore 11
	.cfi_restore 5
	.cfi_restore 4
	.cfi_def_cfa_offset 0
	bx	lr
.L21:
	.align	2
.L20:
	.word	.LC4-(.LPIC4+8)
	.word	.LC5-(.LPIC5+8)
	.cfi_endproc
.LFE4:
	.size	handle, .-handle
	.align	2
	.syntax unified
	.arm
	.fpu softvfp
	.type	server_initialize, %function
server_initialize:
.LFB5:
	.loc 1 57 0
	.cfi_startproc
	@ Function supports interworking.
	@ args = 0, pretend = 0, frame = 8
	@ frame_needed = 1, uses_anonymous_args = 0
	push	{fp, lr}
	.cfi_def_cfa_offset 8
	.cfi_offset 11, -8
	.cfi_offset 14, -4
	add	fp, sp, #4
	.cfi_def_cfa 11, 4
	sub	sp, sp, #8
	str	r0, [fp, #-8]
	.loc 1 57 0
	ldr	r3, [fp, #-8]
	mov	r0, r3
	bl	initialize(PLT)
	nop
	sub	sp, fp, #4
	.cfi_def_cfa 13, 8
	@ sp needed
	pop	{fp, lr}
	.cfi_restore 14
	.cfi_restore 11
	.cfi_def_cfa_offset 0
	bx	lr
	.cfi_endproc
.LFE5:
	.size	server_initialize, .-server_initialize
	.align	2
	.syntax unified
	.arm
	.fpu softvfp
	.type	server_work, %function
server_work:
.LFB6:
	.loc 1 57 0
	.cfi_startproc
	@ Function supports interworking.
	@ args = 0, pretend = 0, frame = 16
	@ frame_needed = 1, uses_anonymous_args = 0
	push	{fp, lr}
	.cfi_def_cfa_offset 8
	.cfi_offset 11, -8
	.cfi_offset 14, -4
	add	fp, sp, #4
	.cfi_def_cfa 11, 4
	sub	sp, sp, #16
	str	r0, [fp, #-16]
	.loc 1 57 0
	ldr	r3, [fp, #-16]
	add	r3, r3, #18176
	add	r3, r3, #172
	sub	r0, fp, #12
	mov	r2, #4
	mov	r1, r3
	bl	Receive(PLT)
	str	r0, [fp, #-8]
	ldr	r0, [fp, #-16]
	ldr	r1, [fp, #-12]
	ldr	r3, [fp, #-16]
	add	r2, r3, #18176
	add	r2, r2, #172
	ldr	r3, [fp, #-8]
	bl	handle(PLT)
	nop
	sub	sp, fp, #4
	.cfi_def_cfa 13, 8
	@ sp needed
	pop	{fp, lr}
	.cfi_restore 14
	.cfi_restore 11
	.cfi_def_cfa_offset 0
	bx	lr
	.cfi_endproc
.LFE6:
	.size	server_work, .-server_work
	.section	.rodata
	.align	2
.LC6:
	.ascii	"position_server\000"
	.align	2
.LC7:
	.ascii	"Service %s created with tid %d.\012\015\000"
	.text
	.align	2
	.global	position_server
	.syntax unified
	.arm
	.fpu softvfp
	.type	position_server, %function
position_server:
.LFB7:
	.loc 1 57 0
	.cfi_startproc
	@ Function supports interworking.
	@ args = 0, pretend = 0, frame = 18352
	@ frame_needed = 1, uses_anonymous_args = 0
	push	{fp, lr}
	.cfi_def_cfa_offset 8
	.cfi_offset 11, -8
	.cfi_offset 14, -4
	add	fp, sp, #4
	.cfi_def_cfa 11, 4
	sub	sp, sp, #18176
	sub	sp, sp, #176
	.loc 1 57 0
	bl	Service(PLT)
	bl	MyTid(PLT)
	mov	r3, r0
	mov	r2, r3
	ldr	r3, .L26
.LPIC6:
	add	r3, pc, r3
	mov	r1, r3
	ldr	r3, .L26+4
.LPIC7:
	add	r3, pc, r3
	mov	r0, r3
	bl	tfp_dprintf(PLT)
	sub	r3, fp, #18176
	sub	r3, r3, #4
	sub	r3, r3, #176
	mov	r0, r3
	bl	server_initialize(PLT)
.L25:
	.loc 1 57 0 is_stmt 0 discriminator 2
	sub	r3, fp, #18176
	sub	r3, r3, #4
	sub	r3, r3, #176
	mov	r0, r3
	bl	server_work(PLT)
	b	.L25
.L27:
	.align	2
.L26:
	.word	.LC6-(.LPIC6+8)
	.word	.LC7-(.LPIC7+8)
	.cfi_endproc
.LFE7:
	.size	position_server, .-position_server
.Letext0:
	.file 2 "src/util/ai/mlp.h"
	.file 3 "src/util/ai/intersensorTime.h"
	.file 4 "src/util/ai/position.h"