	.cpu arm920t
	.eabi_attribute 20, 1
	.eabi_attribute 21, 1
	.eabi_attribute 23, 3
	.eabi_attribute 24, 1
	.eabi_attribute 25, 1
	.eabi_attribute 26, 1
	.eabi_attribute 30, 6
	.eabi_attribute 34, 0
	.eabi_attribute 18, 4
	.file	"intersensorTime.c"
	.text
.Ltext0:
	.cfi_sections	.debug_frame
	.align	2
	.global	initIST
	.syntax unified
	.arm
	.fpu softvfp
	.type	initIST, %function
initIST:
.LFB0:
	.file 1 "src/util/ai/intersensorTime.c"
	.loc 1 7 0
	.cfi_startproc
	@ Function supports interworking.
	@ args = 0, pretend = 0, frame = 8
	@ frame_needed = 1, uses_anonymous_args = 0
	push	{fp, lr}
	.cfi_def_cfa_offset 8
	.cfi_offset 11, -8
	.cfi_offset 14, -4
	add	fp, sp, #4
	.cfi_def_cfa 11, 4
	sub	sp, sp, #24
	str	r0, [fp, #-8]
	.loc 1 8 0
	ldr	r3, [fp, #-8]
	add	r3, r3, #8192
	mov	r2, r3
	mov	r3, #20
	str	r3, [r2, #2096]
	.loc 1 9 0
	ldr	r3, [fp, #-8]
	add	r3, r3, #8192
	mov	r2, r3
	mov	r3, #1
	str	r3, [r2, #2100]
	.loc 1 10 0
	ldr	r3, [fp, #-8]
	add	r3, r3, #9792
	add	r3, r3, #48
	ldr	r2, [fp, #-8]
	add	r2, r2, #8192
	str	r3, [r2, #2104]
	.loc 1 11 0
	ldr	r3, [fp, #-8]
	add	r3, r3, #10240
	ldr	r2, [fp, #-8]
	add	r2, r2, #8192
	str	r3, [r2, #2108]
	.loc 1 12 0
	ldr	r3, [fp, #-8]
	ldr	r2, [fp, #-8]
	add	r2, r2, #8192
	str	r3, [r2, #2112]
	.loc 1 13 0
	ldr	r3, [fp, #-8]
	add	r3, r3, #9728
	add	r3, r3, #32
	ldr	r2, [fp, #-8]
	add	r2, r2, #8192
	str	r3, [r2, #2116]
	.loc 1 14 0
	ldr	r3, [fp, #-8]
	add	r3, r3, #8192
	mov	r2, #3
	strb	r2, [r3, #2120]
	.loc 1 15 0
	ldr	r3, [fp, #-8]
	add	r3, r3, #8192
	mov	r2, #3
	strb	r2, [r3, #2121]
	.loc 1 16 0
	ldr	r3, [fp, #-8]
	add	r0, r3, #10240
	add	r0, r0, #20
	.loc 1 17 0
	ldr	r3, [fp, #-8]
	add	r1, r3, #10240
	add	r1, r1, #48
	ldr	r3, [fp, #-8]
	add	r3, r3, #10304
	add	r3, r3, #8
	ldr	r2, [fp, #-8]
	add	r2, r2, #10240
	add	r2, r2, #56
	ldr	ip, [fp, #-8]
	add	ip, ip, #10304
	.loc 1 16 0
	str	ip, [sp, #8]
	str	r2, [sp, #4]
	str	r3, [sp]
	mov	r3, r1
	mov	r2, #2
	mov	r1, #122
	bl	mlpInit(PLT)
	.loc 1 18 0
	nop
	sub	sp, fp, #4
	.cfi_def_cfa 13, 8
	@ sp needed
	pop	{fp, lr}
	.cfi_restore 14
	.cfi_restore 11
	.cfi_def_cfa_offset 0
	bx	lr
	.cfi_endproc
.LFE0:
	.size	initIST, .-initIST
	.global	__aeabi_i2f
	.global	__aeabi_fdiv
	.align	2
	.global	trainIST
	.syntax unified
	.arm
	.fpu softvfp
	.type	trainIST, %function
trainIST:
.LFB1:
	.loc 1 21 0
	.cfi_startproc
	@ Function supports interworking.
	@ args = 0, pretend = 0, frame = 24
	@ frame_needed = 1, uses_anonymous_args = 0
	push	{fp, lr}
	.cfi_def_cfa_offset 8
	.cfi_offset 11, -8
	.cfi_offset 14, -4
	add	fp, sp, #4
	.cfi_def_cfa 11, 4
	sub	sp, sp, #32
	str	r0, [fp, #-16]
	str	r1, [fp, #-20]
	str	r2, [fp, #-24]
	.loc 1 22 0
	ldr	r0, [fp, #-24]
	bl	__aeabi_i2f(PLT)
.LVL0:
	mov	r3, r0
	ldr	r1, .L3
	mov	r0, r3
	bl	__aeabi_fdiv(PLT)
.LVL1:
	mov	r3, r0
	str	r3, [fp, #-8]	@ float
	.loc 1 23 0
	ldr	r3, [fp, #-16]
	add	r0, r3, #10240
	add	r0, r0, #20
	sub	r2, fp, #8
	ldr	r3, .L3+4
	str	r3, [sp]	@ float
	mov	r3, r2
	mov	r2, #0
	ldr	r1, [fp, #-20]
	bl	network_train(PLT)
	.loc 1 24 0
	nop
	sub	sp, fp, #4
	.cfi_def_cfa 13, 8
	@ sp needed
	pop	{fp, lr}
	.cfi_restore 14
	.cfi_restore 11
	.cfi_def_cfa_offset 0
	bx	lr
.L4:
	.align	2
.L3:
	.word	1120403456
	.word	1008981770
	.cfi_endproc
.LFE1:
	.size	trainIST, .-trainIST
	.global	__aeabi_f2d
	.global	__aeabi_dmul
	.global	__aeabi_d2iz
	.align	2
	.global	getIST
	.syntax unified
	.arm
	.fpu softvfp
	.type	getIST, %function
getIST:
.LFB2:
	.loc 1 27 0
	.cfi_startproc
	@ Function supports interworking.
	@ args = 0, pretend = 0, frame = 16
	@ frame_needed = 1, uses_anonymous_args = 0
	push	{r4, fp, lr}
	.cfi_def_cfa_offset 12
	.cfi_offset 4, -12
	.cfi_offset 11, -8
	.cfi_offset 14, -4
	add	fp, sp, #8
	.cfi_def_cfa 11, 4
	sub	sp, sp, #20
	str	r0, [fp, #-24]
	str	r1, [fp, #-28]
	.loc 1 29 0
	ldr	r3, [fp, #-24]
	add	r3, r3, #10240
	add	r3, r3, #20
	sub	r2, fp, #16
	ldr	r1, [fp, #-28]
	mov	r0, r3
	bl	network_value(PLT)
	.loc 1 31 0
	ldr	r3, [fp, #-16]	@ float
	mov	r0, r3
	bl	__aeabi_f2d(PLT)
.LVL2:
	mov	r2, #0
	ldr	r3, .L7
	bl	__aeabi_dmul(PLT)
.LVL3:
	mov	r3, r0
	mov	r4, r1
	mov	r0, r3
	mov	r1, r4
	bl	__aeabi_d2iz(PLT)
.LVL4:
	mov	r3, r0
	.loc 1 32 0
	mov	r0, r3
	sub	sp, fp, #8
	.cfi_def_cfa 13, 12
	@ sp needed
	pop	{r4, fp, lr}
	.cfi_restore 14
	.cfi_restore 11
	.cfi_restore 4
	.cfi_def_cfa_offset 0
	bx	lr
.L8:
	.align	2
.L7:
	.word	1079574528
	.cfi_endproc
.LFE2:
	.size	getIST, .-getIST
.Letext0:
	.file 2 "src/util/ai/mlp.h"
	.file 3 "src/util/ai/intersensorTime.h"