	.cpu arm920t
	.eabi_attribute 20, 1
	.eabi_attribute 21, 1
	.eabi_attribute 23, 3
	.eabi_attribute 24, 1
	.eabi_attribute 25, 1
	.eabi_attribute 26, 1
	.eabi_attribute 30, 6
	.eabi_attribute 34, 0
	.eabi_attribute 18, 4
	.file	"position.c"
	.text
.Ltext0:
	.cfi_sections	.debug_frame
	.align	2
	.global	initPositionCalculator
	.syntax unified
	.arm
	.fpu softvfp
	.type	initPositionCalculator, %function
initPositionCalculator:
.LFB0:
	.file 1 "src/util/ai/position.c"
	.loc 1 8 0
	.cfi_startproc
	@ Function supports interworking.
	@ args = 0, pretend = 0, frame = 16
	@ frame_needed = 1, uses_anonymous_args = 0
	push	{fp, lr}
	.cfi_def_cfa_offset 8
	.cfi_offset 11, -8
	.cfi_offset 14, -4
	add	fp, sp, #4
	.cfi_def_cfa 11, 4
	sub	sp, sp, #16
	str	r0, [fp, #-16]
	.loc 1 11 0
	mov	r3, #0
	str	r3, [fp, #-8]
	b	.L2
.L3:
	.loc 1 12 0 discriminator 3
	ldr	r2, [fp, #-16]
	ldr	r3, [fp, #-8]
	add	r3, r3, #2576
	add	r3, r3, #2
	lsl	r3, r3, #2
	add	r3, r2, r3
	mvn	r2, #0
	str	r2, [r3, #4]
	.loc 1 13 0 discriminator 3
	ldr	r2, [fp, #-16]
	ldr	r3, [fp, #-8]
	add	r3, r3, #2576
	add	r3, r3, #8
	lsl	r3, r3, #2
	add	r3, r2, r3
	mov	r2, #0
	str	r2, [r3, #4]
	.loc 1 14 0 discriminator 3
	ldr	r2, [fp, #-16]
	ldr	r3, [fp, #-8]
	add	r3, r3, #2576
	add	r3, r3, #14
	lsl	r3, r3, #2
	add	r3, r2, r3
	mov	r2, #0
	str	r2, [r3, #4]
	.loc 1 15 0 discriminator 3
	ldr	r2, [fp, #-16]
	ldr	r3, [fp, #-8]
	add	r3, r3, #2592
	add	r3, r3, #4
	lsl	r3, r3, #2
	add	r3, r2, r3
	mov	r2, #0
	str	r2, [r3, #4]
	.loc 1 16 0 discriminator 3
	ldr	r2, [fp, #-16]
	ldr	r3, [fp, #-8]
	add	r3, r3, #2592
	add	r3, r3, #10
	lsl	r3, r3, #2
	add	r3, r2, r3
	mvn	r2, #0
	str	r2, [r3, #4]
	.loc 1 17 0 discriminator 3
	ldr	r2, [fp, #-16]
	ldr	r3, [fp, #-8]
	add	r3, r3, #2608
	lsl	r3, r3, #2
	add	r3, r2, r3
	mvn	r2, #0
	str	r2, [r3, #4]
	.loc 1 11 0 discriminator 3
	ldr	r3, [fp, #-8]
	add	r3, r3, #1
	str	r3, [fp, #-8]
.L2:
	.loc 1 11 0 is_stmt 0 discriminator 1
	ldr	r3, [fp, #-8]
	cmp	r3, #5
	ble	.L3
	.loc 1 20 0 is_stmt 1
	ldr	r3, [fp, #-16]
	mov	r0, r3
	bl	initIST(PLT)
	.loc 1 22 0
	ldr	r3, [fp, #-16]
	add	r3, r3, #16384
	mov	r2, r3
	mov	r3, #0
	str	r3, [r2, #1952]
	.loc 1 23 0
	ldr	r3, [fp, #-16]
	add	r3, r3, #16384
	mov	r2, r3
	mov	r3, #0
	str	r3, [r2, #1956]
	.loc 1 24 0
	nop
	sub	sp, fp, #4
	.cfi_def_cfa 13, 8
	@ sp needed
	pop	{fp, lr}
	.cfi_restore 14
	.cfi_restore 11
	.cfi_def_cfa_offset 0
	bx	lr
	.cfi_endproc
.LFE0:
	.size	initPositionCalculator, .-initPositionCalculator
	.align	2
	.global	registerSensorTrigger
	.syntax unified
	.arm
	.fpu softvfp
	.type	registerSensorTrigger, %function
registerSensorTrigger:
.LFB1:
	.loc 1 27 0
	.cfi_startproc
	@ Function supports interworking.
	@ args = 4, pretend = 0, frame = 520
	@ frame_needed = 1, uses_anonymous_args = 0
	push	{fp, lr}
	.cfi_def_cfa_offset 8
	.cfi_offset 11, -8
	.cfi_offset 14, -4
	add	fp, sp, #4
	.cfi_def_cfa 11, 4
	sub	sp, sp, #520
	str	r0, [fp, #-512]
	str	r1, [fp, #-516]
	str	r2, [fp, #-520]
	str	r3, [fp, #-524]
	.loc 1 30 0
	mov	r3, #0
	str	r3, [fp, #-12]
	.loc 1 31 0
	ldr	r2, [fp, #-512]
	ldr	r3, [fp, #-520]
	add	r3, r3, #2592
	add	r3, r3, #10
	lsl	r3, r3, #2
	add	r3, r2, r3
	ldr	r3, [r3, #4]
	cmn	r3, #1
	beq	.L5
	.loc 1 32 0
	ldr	r2, [fp, #-512]
	ldr	r3, [fp, #-520]
	add	r3, r3, #2592
	add	r3, r3, #10
	lsl	r3, r3, #2
	add	r3, r2, r3
	ldr	r3, [r3, #4]
	ldr	r2, [fp, #-524]
	sub	r3, r2, r3
	str	r3, [fp, #-12]
.L5:
	.loc 1 36 0
	mov	r3, #0
	str	r3, [fp, #-8]
	b	.L6
.L9:
	.loc 1 37 0
	ldr	r2, [fp, #-8]
	ldr	r3, [fp, #-516]
	cmp	r2, r3
	bne	.L7
	.loc 1 37 0 is_stmt 0 discriminator 1
	mov	r2, #1065353216
	b	.L8
.L7:
	.loc 1 37 0 discriminator 2
	mov	r2, #0
.L8:
	.loc 1 37 0 discriminator 4
	ldr	r3, [fp, #-8]
	lsl	r3, r3, #2
	sub	r1, fp, #4
	add	r3, r1, r3
	str	r2, [r3, #-504]	@ float
	.loc 1 36 0 is_stmt 1 discriminator 4
	ldr	r3, [fp, #-8]
	add	r3, r3, #1
	str	r3, [fp, #-8]
.L6:
	.loc 1 36 0 is_stmt 0 discriminator 2
	ldr	r3, [fp, #-8]
	cmp	r3, #79
	ble	.L9
	.loc 1 38 0 is_stmt 1
	mov	r3, #0
	str	r3, [fp, #-8]
	b	.L10
.L13:
	.loc 1 39 0
	ldr	r3, [fp, #-512]
	add	r3, r3, #8192
	ldr	r3, [r3, #2268]
	bic	r3, r3, #-16777216
	bic	r3, r3, #12582912
	mov	r2, r3
	ldr	r3, [fp, #-8]
	asr	r3, r2, r3
	and	r3, r3, #1
	cmp	r3, #0
	beq	.L11
	.loc 1 39 0 is_stmt 0 discriminator 1
	mov	r2, #1065353216
	b	.L12
.L11:
	.loc 1 39 0 discriminator 2
	mov	r2, #0
.L12:
	.loc 1 39 0 discriminator 4
	ldr	r3, [fp, #-8]
	add	r3, r3, #80
	lsl	r3, r3, #2
	sub	r1, fp, #4
	add	r3, r1, r3
	str	r2, [r3, #-504]	@ float
	.loc 1 38 0 is_stmt 1 discriminator 4
	ldr	r3, [fp, #-8]
	add	r3, r3, #1
	str	r3, [fp, #-8]
.L10:
	.loc 1 38 0 is_stmt 0 discriminator 2
	ldr	r3, [fp, #-8]
	cmp	r3, #21
	ble	.L13
	.loc 1 40 0 is_stmt 1
	mov	r3, #0
	str	r3, [fp, #-8]
	b	.L14
.L17:
	.loc 1 41 0
	ldr	r2, [fp, #-8]
	ldr	r3, [fp, #-520]
	cmp	r2, r3
	bne	.L15
	.loc 1 41 0 is_stmt 0 discriminator 1
	mov	r2, #1065353216
	b	.L16
.L15:
	.loc 1 41 0 discriminator 2
	mov	r2, #0
.L16:
	.loc 1 41 0 discriminator 4
	ldr	r3, [fp, #-8]
	add	r3, r3, #102
	lsl	r3, r3, #2
	sub	r1, fp, #4
	add	r3, r1, r3
	str	r2, [r3, #-504]	@ float
	.loc 1 40 0 is_stmt 1 discriminator 4
	ldr	r3, [fp, #-8]
	add	r3, r3, #1
	str	r3, [fp, #-8]
.L14:
	.loc 1 40 0 is_stmt 0 discriminator 2
	ldr	r3, [fp, #-8]
	cmp	r3, #5
	ble	.L17
	.loc 1 42 0 is_stmt 1
	sub	r3, fp, #508
	add	r3, r3, #432
	ldr	r2, [fp, #-524]
	ldr	r1, [fp, #-520]
	ldr	r0, [fp, #-512]
	bl	getEffectiveSpeeds(PLT)
	.loc 1 44 0
	ldr	r3, [fp, #-512]
	sub	r2, fp, #508
	mov	r1, r2
	mov	r0, r3
	bl	getIST(PLT)
	str	r0, [fp, #-16]
	.loc 1 45 0
	ldr	r2, [fp, #-16]
	ldr	r3, [fp, #-524]
	add	r2, r2, r3
	ldr	r1, [fp, #-512]
	ldr	r3, [fp, #-520]
	add	r3, r3, #2592
	add	r3, r3, #10
	lsl	r3, r3, #2
	add	r3, r1, r3
	str	r2, [r3, #4]
	.loc 1 48 0
	ldr	r2, [fp, #-512]
	ldr	r3, [fp, #-520]
	add	r3, r3, #2576
	add	r3, r3, #2
	lsl	r3, r3, #2
	add	r3, r2, r3
	ldr	r3, [r3, #4]
	cmp	r3, #0
	blt	.L18
	.loc 1 48 0 is_stmt 0 discriminator 1
	ldr	r3, [fp, #4]
	cmp	r3, #0
	beq	.L18
.LBB2:
	.loc 1 49 0 is_stmt 1
	ldr	r3, [fp, #-512]
	add	r3, r3, #16384
	ldr	r2, [r3, #1952]
	ldr	r3, [fp, #-512]
	add	r3, r3, #16384
	ldr	r3, [r3, #1956]
	add	r2, r2, r3
	asr	r3, r2, #31
	lsr	r3, r3, #28
	add	r2, r2, r3
	and	r2, r2, #15
	sub	r3, r2, r3
	str	r3, [fp, #-20]
	.loc 1 50 0
	ldr	r1, [fp, #-512]
	ldr	r2, [fp, #-20]
	mov	r3, r2
	lsl	r3, r3, #5
	sub	r3, r3, r2
	lsl	r3, r3, #2
	sub	r3, r3, r2
	lsl	r3, r3, #2
	add	r3, r1, r3
	add	r3, r3, #10432
	add	r3, r3, #32
	mov	r0, r3
	sub	r3, fp, #508
	mov	r2, #488
	mov	r1, r3
	bl	memcpy(PLT)
	.loc 1 51 0
	ldr	r2, [fp, #-512]
	ldr	r3, [fp, #-520]
	add	r3, r3, #2608
	lsl	r3, r3, #2
	add	r3, r2, r3
	ldr	r3, [r3, #4]
	ldr	r2, [fp, #-524]
	sub	r1, r2, r3
	ldr	r0, [fp, #-512]
	ldr	r2, [fp, #-20]
	mov	r3, r2
	lsl	r3, r3, #5
	sub	r3, r3, r2
	lsl	r3, r3, #2
	sub	r3, r3, r2
	lsl	r3, r3, #2
	add	r3, r0, r3
	add	r3, r3, #10944
	add	r3, r3, #8
	str	r1, [r3]
.L18:
.LBE2:
	.loc 1 54 0
	ldr	r2, [fp, #-512]
	ldr	r3, [fp, #-520]
	add	r3, r3, #2608
	lsl	r3, r3, #2
	add	r3, r2, r3
	ldr	r2, [fp, #-524]
	str	r2, [r3, #4]
	.loc 1 55 0
	ldr	r2, [fp, #-512]
	ldr	r3, [fp, #-520]
	add	r3, r3, #2576
	add	r3, r3, #2
	lsl	r3, r3, #2
	add	r3, r2, r3
	ldr	r2, [fp, #-516]
	str	r2, [r3, #4]
	.loc 1 58 0
	ldr	r3, [fp, #-12]
	.loc 1 59 0
	mov	r0, r3
	sub	sp, fp, #4
	.cfi_def_cfa 13, 8
	@ sp needed
	pop	{fp, lr}
	.cfi_restore 14
	.cfi_restore 11
	.cfi_def_cfa_offset 0
	bx	lr
	.cfi_endproc
.LFE1:
	.size	registerSensorTrigger, .-registerSensorTrigger
	.align	2
	.global	registerTrainSpeed
	.syntax unified
	.arm
	.fpu softvfp
	.type	registerTrainSpeed, %function
registerTrainSpeed:
.LFB2:
	.loc 1 62 0
	.cfi_startproc
	@ Function supports interworking.
	@ args = 0, pretend = 0, frame = 16
	@ frame_needed = 1, uses_anonymous_args = 0
	@ link register save eliminated.
	str	fp, [sp, #-4]!
	.cfi_def_cfa_offset 4
	.cfi_offset 11, -4
	add	fp, sp, #0
	.cfi_def_cfa_register 11
	sub	sp, sp, #20
	str	r0, [fp, #-8]
	str	r1, [fp, #-12]
	str	r2, [fp, #-16]
	str	r3, [fp, #-20]
	.loc 1 63 0
	ldr	r2, [fp, #-8]
	ldr	r3, [fp, #-12]
	add	r3, r3, #2576
	add	r3, r3, #14
	lsl	r3, r3, #2
	add	r3, r2, r3
	ldr	r2, [fp, #-16]
	str	r2, [r3, #4]
	.loc 1 64 0
	ldr	r2, [fp, #-8]
	ldr	r3, [fp, #-12]
	add	r3, r3, #2592
	add	r3, r3, #4
	lsl	r3, r3, #2
	add	r3, r2, r3
	ldr	r2, [fp, #-20]
	str	r2, [r3, #4]
	.loc 1 65 0
	nop
	add	sp, fp, #0
	.cfi_def_cfa_register 13
	@ sp needed
	ldr	fp, [sp], #4
	.cfi_restore 11
	.cfi_def_cfa_offset 0
	bx	lr
	.cfi_endproc
.LFE2:
	.size	registerTrainSpeed, .-registerTrainSpeed
	.align	2
	.global	registerSwitchState
	.syntax unified
	.arm
	.fpu softvfp
	.type	registerSwitchState, %function
registerSwitchState:
.LFB3:
	.loc 1 68 0
	.cfi_startproc
	@ Function supports interworking.
	@ args = 0, pretend = 0, frame = 16
	@ frame_needed = 1, uses_anonymous_args = 0
	@ link register save eliminated.
	str	fp, [sp, #-4]!
	.cfi_def_cfa_offset 4
	.cfi_offset 11, -4
	add	fp, sp, #0
	.cfi_def_cfa_register 11
	sub	sp, sp, #20
	str	r0, [fp, #-8]
	str	r1, [fp, #-12]
	str	r2, [fp, #-16]
	.loc 1 69 0
	ldr	r3, [fp, #-16]
	cmp	r3, #0
	beq	.L22
	.loc 1 70 0
	ldr	r3, [fp, #-8]
	add	r3, r3, #8192
	ldr	r3, [r3, #2268]
	bic	r3, r3, #-16777216
	bic	r3, r3, #12582912
	mov	r1, r3
	mov	r2, #1
	ldr	r3, [fp, #-12]
	lsl	r3, r2, r3
	orr	r3, r1, r3
	bic	r2, r3, #-16777216
	bic	r2, r2, #12582912
	ldr	r3, [fp, #-8]
	add	r3, r3, #8192
	mov	r1, r3
	ldr	r3, [r1, #2268]
	lsl	r2, r2, #10
	lsr	r3, r3, #22
	orr	r3, r3, r2
	ror	r3, r3, #10
	str	r3, [r1, #2268]
	.loc 1 73 0
	b	.L24
.L22:
	.loc 1 72 0
	ldr	r3, [fp, #-8]
	add	r3, r3, #8192
	ldr	r3, [r3, #2268]
	bic	r3, r3, #-16777216
	bic	r3, r3, #12582912
	mov	r1, r3
	mov	r2, #1
	ldr	r3, [fp, #-12]
	lsl	r3, r2, r3
	mvn	r3, r3
	and	r3, r3, r1
	bic	r2, r3, #-16777216
	bic	r2, r2, #12582912
	ldr	r3, [fp, #-8]
	add	r3, r3, #8192
	mov	r1, r3
	ldr	r3, [r1, #2268]
	lsl	r2, r2, #10
	lsr	r3, r3, #22
	orr	r3, r3, r2
	ror	r3, r3, #10
	str	r3, [r1, #2268]
.L24:
	.loc 1 73 0
	nop
	add	sp, fp, #0
	.cfi_def_cfa_register 13
	@ sp needed
	ldr	fp, [sp], #4
	.cfi_restore 11
	.cfi_def_cfa_offset 0
	bx	lr
	.cfi_endproc
.LFE3:
	.size	registerSwitchState, .-registerSwitchState
	.align	2
	.global	learnPositions
	.syntax unified
	.arm
	.fpu softvfp
	.type	learnPositions, %function
learnPositions:
.LFB4:
	.loc 1 76 0
	.cfi_startproc
	@ Function supports interworking.
	@ args = 0, pretend = 0, frame = 16
	@ frame_needed = 1, uses_anonymous_args = 0
	push	{fp, lr}
	.cfi_def_cfa_offset 8
	.cfi_offset 11, -8
	.cfi_offset 14, -4
	add	fp, sp, #4
	.cfi_def_cfa 11, 4
	sub	sp, sp, #16
	str	r0, [fp, #-16]
	.loc 1 78 0
	mov	r3, #0
	str	r3, [fp, #-8]
	b	.L26
.L27:
.LBB3:
	.loc 1 79 0 discriminator 3
	ldr	r3, [fp, #-16]
	add	r3, r3, #16384
	ldr	r2, [r3, #1956]
	ldr	r3, [fp, #-8]
	add	r3, r2, r3
	str	r3, [fp, #-12]
	.loc 1 80 0 discriminator 3
	ldr	r0, [fp, #-16]
	ldr	r2, [fp, #-12]
	asr	r3, r2, #31
	lsr	r3, r3, #28
	add	r2, r2, r3
	and	r2, r2, #15
	sub	r3, r2, r3
	mov	r2, r3
	mov	r3, r2
	lsl	r3, r3, #5
	sub	r3, r3, r2
	lsl	r3, r3, #2
	sub	r3, r3, r2
	lsl	r3, r3, #2
	add	r3, r3, #10432
	add	r3, r3, #32
	ldr	r2, [fp, #-16]
	add	ip, r2, r3
	ldr	r2, [fp, #-12]
	asr	r3, r2, #31
	lsr	r3, r3, #28
	add	r2, r2, r3
	and	r2, r2, #15
	sub	r3, r2, r3
	mov	r2, r3
	ldr	r1, [fp, #-16]
	mov	r3, r2
	lsl	r3, r3, #5
	sub	r3, r3, r2
	lsl	r3, r3, #2
	sub	r3, r3, r2
	lsl	r3, r3, #2
	add	r3, r1, r3
	add	r3, r3, #10944
	add	r3, r3, #8
	ldr	r3, [r3]
	mov	r2, r3
	mov	r1, ip
	bl	trainIST(PLT)
	.loc 1 81 0 discriminator 3
	bl	Pass(PLT)
.LBE3:
	.loc 1 78 0 discriminator 3
	ldr	r3, [fp, #-8]
	add	r3, r3, #1
	str	r3, [fp, #-8]
.L26:
	.loc 1 78 0 is_stmt 0 discriminator 1
	ldr	r3, [fp, #-16]
	add	r3, r3, #16384
	ldr	r2, [r3, #1952]
	ldr	r3, [fp, #-8]
	cmp	r2, r3
	bgt	.L27
	.loc 1 83 0 is_stmt 1
	nop
	sub	sp, fp, #4
	.cfi_def_cfa 13, 8
	@ sp needed
	pop	{fp, lr}
	.cfi_restore 14
	.cfi_restore 11
	.cfi_def_cfa_offset 0
	bx	lr
	.cfi_endproc
.LFE4:
	.size	learnPositions, .-learnPositions
	.global	__aeabi_idiv
	.align	2
	.global	getPosition
	.syntax unified
	.arm
	.fpu softvfp
	.type	getPosition, %function
getPosition:
.LFB5:
	.loc 1 86 0
	.cfi_startproc
	@ Function supports interworking.
	@ args = 0, pretend = 0, frame = 32
	@ frame_needed = 1, uses_anonymous_args = 0
	push	{fp, lr}
	.cfi_def_cfa_offset 8
	.cfi_offset 11, -8
	.cfi_offset 14, -4
	add	fp, sp, #4
	.cfi_def_cfa 11, 4
	sub	sp, sp, #32
	str	r0, [fp, #-24]
	str	r1, [fp, #-28]
	str	r2, [fp, #-32]
	str	r3, [fp, #-36]
	.loc 1 87 0
	ldr	r2, [fp, #-28]
	ldr	r3, [fp, #-32]
	add	r3, r3, #2592
	add	r3, r3, #10
	lsl	r3, r3, #2
	add	r3, r2, r3
	ldr	r3, [r3, #4]
	str	r3, [fp, #-8]
	.loc 1 88 0
	ldr	r2, [fp, #-28]
	ldr	r3, [fp, #-32]
	add	r3, r3, #2608
	lsl	r3, r3, #2
	add	r3, r2, r3
	ldr	r3, [r3, #4]
	str	r3, [fp, #-12]
	.loc 1 92 0
	ldr	r2, [fp, #-36]
	ldr	r3, [fp, #-12]
	sub	r2, r2, r3
	mov	r3, r2
	lsl	r3, r3, #5
	sub	r3, r3, r2
	lsl	r3, r3, #2
	add	r3, r3, r2
	lsl	r3, r3, #3
	ldr	r1, [fp, #-8]
	mov	r0, r3
	bl	__aeabi_idiv(PLT)
.LVL0:
	mov	r3, r0
	str	r3, [fp, #-20]
	.loc 1 93 0
	ldr	r2, [fp, #-28]
	ldr	r3, [fp, #-32]
	add	r3, r3, #2576
	add	r3, r3, #2
	lsl	r3, r3, #2
	add	r3, r2, r3
	ldr	r3, [r3, #4]
	str	r3, [fp, #-16]
	.loc 1 94 0
	ldr	r3, [fp, #-24]
	mov	r2, r3
	sub	r3, fp, #20
	ldm	r3, {r0, r1}
	stm	r2, {r0, r1}
	.loc 1 96 0
	ldr	r0, [fp, #-24]
	sub	sp, fp, #4
	.cfi_def_cfa 13, 8
	@ sp needed
	pop	{fp, lr}
	.cfi_restore 14
	.cfi_restore 11
	.cfi_def_cfa_offset 0
	bx	lr
	.cfi_endproc
.LFE5:
	.size	getPosition, .-getPosition
	.align	2
	.global	getExpectedNextSensorTime
	.syntax unified
	.arm
	.fpu softvfp
	.type	getExpectedNextSensorTime, %function
getExpectedNextSensorTime:
.LFB6:
	.loc 1 99 0
	.cfi_startproc
	@ Function supports interworking.
	@ args = 0, pretend = 0, frame = 8
	@ frame_needed = 1, uses_anonymous_args = 0
	@ link register save eliminated.
	str	fp, [sp, #-4]!
	.cfi_def_cfa_offset 4
	.cfi_offset 11, -4
	add	fp, sp, #0
	.cfi_def_cfa_register 11
	sub	sp, sp, #12
	str	r0, [fp, #-8]
	str	r1, [fp, #-12]
	.loc 1 100 0
	ldr	r2, [fp, #-8]
	ldr	r3, [fp, #-12]
	add	r3, r3, #2592
	add	r3, r3, #10
	lsl	r3, r3, #2
	add	r3, r2, r3
	ldr	r3, [r3, #4]
	.loc 1 101 0
	mov	r0, r3
	add	sp, fp, #0
	.cfi_def_cfa_register 13
	@ sp needed
	ldr	fp, [sp], #4
	.cfi_restore 11
	.cfi_def_cfa_offset 0
	bx	lr
	.cfi_endproc
.LFE6:
	.size	getExpectedNextSensorTime, .-getExpectedNextSensorTime
	.align	2
	.global	getPositionNetworkReference
	.syntax unified
	.arm
	.fpu softvfp
	.type	getPositionNetworkReference, %function
getPositionNetworkReference:
.LFB7:
	.loc 1 104 0
	.cfi_startproc
	@ Function supports interworking.
	@ args = 0, pretend = 0, frame = 8
	@ frame_needed = 1, uses_anonymous_args = 0
	@ link register save eliminated.
	str	fp, [sp, #-4]!
	.cfi_def_cfa_offset 4
	.cfi_offset 11, -4
	add	fp, sp, #0
	.cfi_def_cfa_register 11
	sub	sp, sp, #12
	str	r0, [fp, #-8]
	.loc 1 105 0
	ldr	r3, [fp, #-8]
	.loc 1 106 0
	mov	r0, r3
	add	sp, fp, #0
	.cfi_def_cfa_register 13
	@ sp needed
	ldr	fp, [sp], #4
	.cfi_restore 11
	.cfi_def_cfa_offset 0
	bx	lr
	.cfi_endproc
.LFE7:
	.size	getPositionNetworkReference, .-getPositionNetworkReference
	.align	2
	.global	getEffectiveSpeeds
	.syntax unified
	.arm
	.fpu softvfp
	.type	getEffectiveSpeeds, %function
getEffectiveSpeeds:
.LFB8:
	.loc 1 109 0
	.cfi_startproc
	@ Function supports interworking.
	@ args = 0, pretend = 0, frame = 16
	@ frame_needed = 1, uses_anonymous_args = 0
	@ link register save eliminated.
	str	fp, [sp, #-4]!
	.cfi_def_cfa_offset 4
	.cfi_offset 11, -4
	add	fp, sp, #0
	.cfi_def_cfa_register 11
	sub	sp, sp, #20
	str	r0, [fp, #-8]
	str	r1, [fp, #-12]
	str	r2, [fp, #-16]
	str	r3, [fp, #-20]
	.loc 1 110 0
	ldr	r2, [fp, #-8]
	ldr	r3, [fp, #-12]
	add	r3, r3, #2576
	add	r3, r3, #14
	lsl	r3, r3, #2
	add	r3, r2, r3
	ldr	r3, [r3, #4]
	lsl	r3, r3, #2
	ldr	r2, [fp, #-20]
	add	r3, r2, r3
	mov	r2, #1065353216
	str	r2, [r3]	@ float
	.loc 1 112 0
	nop
	add	sp, fp, #0
	.cfi_def_cfa_register 13
	@ sp needed
	ldr	fp, [sp], #4
	.cfi_restore 11
	.cfi_def_cfa_offset 0
	bx	lr
	.cfi_endproc
.LFE8:
	.size	getEffectiveSpeeds, .-getEffectiveSpeeds
.Letext0:
	.file 2 "src/util/ai/mlp.h"
	.file 3 "src/util/ai/intersensorTime.h"
	.file 4 "src/util/ai/position.h"