	.cpu arm920t
	.eabi_attribute 20, 1
	.eabi_attribute 21, 1
	.eabi_attribute 23, 3
	.eabi_attribute 24, 1
	.eabi_attribute 25, 1
	.eabi_attribute 26, 1
	.eabi_attribute 30, 6
	.eabi_attribute 34, 0
	.eabi_attribute 18, 4
	.file	"A0_model.c"
	.text
.Ltext0:
	.cfi_sections	.debug_frame
	.section	.rodata
	.align	2
.LC0:
	.ascii	"Model TID: %d\012\015\000"
	.align	2
.LC1:
	.ascii	"TOUT\000"
	.align	2
.LC2:
	.ascii	"CLOCK\000"
	.text
	.align	2
	.syntax unified
	.arm
	.fpu softvfp
	.type	initialize, %function
initialize:
.LFB0:
	.file 1 "src/tasks/A0/A0_model.c"
	.loc 1 22 0
	.cfi_startproc
	@ Function supports interworking.
	@ args = 0, pretend = 0, frame = 16
	@ frame_needed = 1, uses_anonymous_args = 0
	push	{r4, fp, lr}
	.cfi_def_cfa_offset 12
	.cfi_offset 4, -12
	.cfi_offset 11, -8
	.cfi_offset 14, -4
	add	fp, sp, #8
	.cfi_def_cfa 11, 4
	sub	sp, sp, #28
	str	r0, [fp, #-24]
	ldr	r4, .L6
.LPIC3:
	add	r4, pc, r4
	.loc 1 24 0
	bl	MyTid(PLT)
	mov	r3, r0
	mov	r1, r3
	ldr	r3, .L6+4
.LPIC0:
	add	r3, pc, r3
	mov	r0, r3
	bl	tfp_dprintf(PLT)
	.loc 1 25 0
	ldr	r3, .L6+8
.LPIC1:
	add	r3, pc, r3
	mov	r0, r3
	bl	WhoIs(PLT)
	mov	r2, r0
	ldr	r3, [fp, #-24]
	str	r2, [r3, #44]
	.loc 1 26 0
	ldr	r3, .L6+12
.LPIC2:
	add	r3, pc, r3
	mov	r0, r3
	bl	WhoIs(PLT)
	mov	r2, r0
	ldr	r3, [fp, #-24]
	str	r2, [r3, #48]
	.loc 1 27 0
	mov	r3, #0
	str	r3, [fp, #-16]
	b	.L2
.L3:
	.loc 1 28 0 discriminator 3
	ldr	r2, [fp, #-24]
	ldr	r3, [fp, #-16]
	add	r3, r2, r3
	add	r3, r3, #52
	mov	r2, #0
	strb	r2, [r3]
	.loc 1 27 0 discriminator 3
	ldr	r3, [fp, #-16]
	add	r3, r3, #1
	str	r3, [fp, #-16]
.L2:
	.loc 1 27 0 is_stmt 0 discriminator 1
	ldr	r3, [fp, #-16]
	cmp	r3, #9
	ble	.L3
	.loc 1 30 0 is_stmt 1
	mov	r3, #0
	str	r3, [fp, #-16]
	b	.L4
.L5:
	.loc 1 31 0 discriminator 3
	ldr	r2, [fp, #-24]
	ldr	r3, [fp, #-16]
	add	r3, r2, r3
	add	r3, r3, #62
	mov	r2, #63
	strb	r2, [r3]
	.loc 1 30 0 discriminator 3
	ldr	r3, [fp, #-16]
	add	r3, r3, #1
	str	r3, [fp, #-16]
.L4:
	.loc 1 30 0 is_stmt 0 discriminator 1
	ldr	r3, [fp, #-16]
	cmp	r3, #20
	ble	.L5
	.loc 1 33 0 is_stmt 1
	mov	r2, #3
	ldr	r3, .L6+16
	ldr	r3, [r4, r3]
	mov	r1, r3
	mov	r0, #1
	bl	CreateSize(PLT)
	mov	r2, r0
	ldr	r3, [fp, #-24]
	str	r2, [r3, #92]
	.loc 1 34 0
	ldr	r3, [fp, #-24]
	ldr	r0, [r3, #92]
	mov	r3, #0
	str	r3, [sp]
	mov	r3, #0
	mov	r2, #0
	mov	r1, #0
	bl	Send(PLT)
	.loc 1 36 0
	mov	r2, #3
	ldr	r3, .L6+20
	ldr	r3, [r4, r3]
	mov	r1, r3
	mov	r0, #1
	bl	CreateSize(PLT)
	str	r0, [fp, #-16]
	.loc 1 37 0
	mov	r3, #0
	str	r3, [sp]
	mov	r3, #0
	mov	r2, #0
	mov	r1, #0
	ldr	r0, [fp, #-16]
	bl	Send(PLT)
	.loc 1 39 0
	mov	r2, #3
	ldr	r3, .L6+24
	ldr	r3, [r4, r3]
	mov	r1, r3
	mov	r0, #1
	bl	CreateSize(PLT)
	mov	r2, r0
	ldr	r3, [fp, #-24]
	str	r2, [r3, #96]
	.loc 1 40 0
	mov	r2, #3
	ldr	r3, .L6+28
	ldr	r3, [r4, r3]
	mov	r1, r3
	mov	r0, #1
	bl	CreateSize(PLT)
	mov	r2, r0
	ldr	r3, [fp, #-24]
	str	r2, [r3, #100]
	.loc 1 41 0
	mov	r2, #3
	ldr	r3, .L6+32
	ldr	r3, [r4, r3]
	mov	r1, r3
	mov	r0, #1
	bl	CreateSize(PLT)
	mov	r2, r0
	ldr	r3, [fp, #-24]
	str	r2, [r3, #104]
	.loc 1 42 0
	mov	r2, #3
	ldr	r3, .L6+36
	ldr	r3, [r4, r3]
	mov	r1, r3
	mov	r0, #1
	bl	CreateSize(PLT)
	.loc 1 43 0
	nop
	sub	sp, fp, #8
	.cfi_def_cfa 13, 12
	@ sp needed
	pop	{r4, fp, lr}
	.cfi_restore 14
	.cfi_restore 11
	.cfi_restore 4
	.cfi_def_cfa_offset 0
	bx	lr
.L7:
	.align	2
.L6:
	.word	_GLOBAL_OFFSET_TABLE_-(.LPIC3+8)
	.word	.LC0-(.LPIC0+8)
	.word	.LC1-(.LPIC1+8)
	.word	.LC2-(.LPIC2+8)
	.word	train_state_view(GOT)
	.word	setup_t(GOT)
	.word	echo_view_t(GOT)
	.word	flip_view_t(GOT)
	.word	sensor_view_t(GOT)
	.word	time_view_t(GOT)
	.cfi_endproc
.LFE0:
	.size	initialize, .-initialize
	.section	.rodata
	.align	2
.LC3:
	.ascii	"\033[2J\000"
	.text
	.align	2
	.syntax unified
	.arm
	.fpu softvfp
	.type	handle, %function
handle:
.LFB1:
	.loc 1 46 0
	.cfi_startproc
	@ Function supports interworking.
	@ args = 0, pretend = 0, frame = 32
	@ frame_needed = 1, uses_anonymous_args = 0
	push	{fp, lr}
	.cfi_def_cfa_offset 8
	.cfi_offset 11, -8
	.cfi_offset 14, -4
	add	fp, sp, #4
	.cfi_def_cfa 11, 4
	sub	sp, sp, #40
	str	r0, [fp, #-24]
	str	r1, [fp, #-28]
	str	r2, [fp, #-32]
	str	r3, [fp, #-36]
	ldr	r1, .L31
.LPIC4:
	add	r1, pc, r1
	.loc 1 49 0
	ldr	r3, [fp, #-32]
	ldrb	r3, [r3]	@ zero_extendqisi2
	cmp	r3, #1
	beq	.L10
	cmp	r3, #2
	beq	.L11
	cmp	r3, #0
	bne	.L9
	.loc 1 51 0
	ldr	r3, [fp, #-32]
	ldrb	r2, [r3, #4]	@ zero_extendqisi2
	ldr	r3, [fp, #-24]
	strb	r2, [r3, #83]
	.loc 1 52 0
	ldr	r3, [fp, #-24]
	ldr	r0, [r3, #96]
	ldr	r3, [fp, #-24]
	add	r1, r3, #83
	mov	r3, #0
	str	r3, [sp]
	mov	r3, #0
	mov	r2, #1
	bl	Send(PLT)
	.loc 1 53 0
	b	.L9
.L10:
	.loc 1 55 0
	mov	r3, #0
	str	r3, [fp, #-8]
	b	.L13
.L16:
	.loc 1 56 0
	ldr	r2, [fp, #-32]
	ldr	r3, [fp, #-8]
	add	r3, r2, r3
	add	r3, r3, #4
	ldrb	r2, [r3]	@ zero_extendqisi2
	ldr	r1, [fp, #-24]
	ldr	r3, [fp, #-8]
	add	r3, r1, r3
	add	r3, r3, #52
	ldrb	r3, [r3]	@ zero_extendqisi2
	cmp	r2, r3
	beq	.L14
	.loc 1 57 0
	ldr	r2, [fp, #-32]
	ldr	r3, [fp, #-8]
	add	r3, r2, r3
	add	r3, r3, #4
	ldrb	r3, [r3]	@ zero_extendqisi2
	mov	r1, r3
	ldr	r2, [fp, #-24]
	ldr	r3, [fp, #-8]
	add	r3, r2, r3
	add	r3, r3, #52
	ldrb	r3, [r3]	@ zero_extendqisi2
	mvn	r3, r3
	and	r3, r3, r1
	cmp	r3, #0
	beq	.L15
	.loc 1 58 0
	ldr	r3, [fp, #-8]
	and	r2, r3, #255
	ldr	r3, [fp, #-24]
	strb	r2, [r3, #83]
	.loc 1 59 0
	ldr	r2, [fp, #-32]
	ldr	r3, [fp, #-8]
	add	r3, r2, r3
	add	r3, r3, #4
	ldrb	r3, [r3]	@ zero_extendqisi2
	lsl	r3, r3, #24
	asr	r2, r3, #24
	ldr	r1, [fp, #-24]
	ldr	r3, [fp, #-8]
	add	r3, r1, r3
	add	r3, r3, #52
	ldrb	r3, [r3]	@ zero_extendqisi2
	lsl	r3, r3, #24
	asr	r3, r3, #24
	mvn	r3, r3
	lsl	r3, r3, #24
	asr	r3, r3, #24
	and	r3, r3, r2
	lsl	r3, r3, #24
	asr	r3, r3, #24
	and	r2, r3, #255
	ldr	r3, [fp, #-24]
	strb	r2, [r3, #84]
	.loc 1 60 0
	ldr	r3, [fp, #-24]
	ldr	r0, [r3, #104]
	ldr	r3, [fp, #-24]
	add	r1, r3, #83
	mov	r3, #0
	str	r3, [sp]
	mov	r3, #0
	mov	r2, #2
	bl	Send(PLT)
.L15:
	.loc 1 62 0
	ldr	r2, [fp, #-32]
	ldr	r3, [fp, #-8]
	add	r3, r2, r3
	add	r3, r3, #4
	ldrb	r1, [r3]	@ zero_extendqisi2
	ldr	r2, [fp, #-24]
	ldr	r3, [fp, #-8]
	add	r3, r2, r3
	add	r3, r3, #52
	mov	r2, r1
	strb	r2, [r3]
.L14:
	.loc 1 55 0 discriminator 2
	ldr	r3, [fp, #-8]
	add	r3, r3, #1
	str	r3, [fp, #-8]
.L13:
	.loc 1 55 0 is_stmt 0 discriminator 1
	ldr	r3, [fp, #-8]
	cmp	r3, #9
	ble	.L16
	.loc 1 65 0 is_stmt 1
	b	.L9
.L11:
	.loc 1 67 0
	ldr	r3, [fp, #-32]
	ldrb	r3, [r3, #4]	@ zero_extendqisi2
	cmp	r3, #4
	addls	pc, pc, r3, asl #2
	b	.L29
.L19:
	b	.L18
	b	.L20
	b	.L21
	b	.L22
	b	.L23
	.p2align 1
.L18:
	.loc 1 69 0
	ldr	r3, [fp, #-24]
	mov	r2, #0
	strb	r2, [r3, #24]
	.loc 1 70 0
	ldr	r3, [fp, #-32]
	ldr	r2, [r3, #8]
	ldr	r3, [fp, #-24]
	str	r2, [r3, #28]
	.loc 1 71 0
	ldr	r3, [fp, #-32]
	ldr	r2, [r3, #12]
	ldr	r3, [fp, #-24]
	str	r2, [r3, #32]
	.loc 1 72 0
	b	.L24
.L20:
	.loc 1 75 0
	ldr	r3, [fp, #-24]
	mov	r2, #1
	strb	r2, [r3, #24]
	.loc 1 76 0
	ldr	r3, [fp, #-32]
	ldr	r2, [r3, #8]
	ldr	r3, [fp, #-24]
	str	r2, [r3, #28]
	.loc 1 77 0
	b	.L24
.L21:
	.loc 1 80 0
	ldr	r3, [fp, #-24]
	mov	r2, #2
	strb	r2, [r3, #24]
	.loc 1 81 0
	ldr	r3, [fp, #-32]
	ldr	r2, [r3, #8]
	ldr	r3, [fp, #-24]
	str	r2, [r3, #28]
	.loc 1 82 0
	nop
.L24:
	.loc 1 85 0
	ldr	r3, [fp, #-24]
	ldr	r0, [r3, #92]
	ldr	r3, [fp, #-24]
	add	r1, r3, #24
	mov	r3, #0
	str	r3, [sp]
	mov	r3, #0
	mov	r2, #12
	bl	Send(PLT)
	.loc 1 86 0
	b	.L17
.L22:
	.loc 1 89 0
	ldr	r3, [fp, #-32]
	ldr	r3, [r3, #8]
	str	r3, [fp, #-12]
	.loc 1 90 0
	ldr	r3, [fp, #-12]
	cmp	r3, #18
	ble	.L25
	.loc 1 91 0
	ldr	r3, [fp, #-12]
	sub	r3, r3, #134
	str	r3, [fp, #-12]
.L25:
	.loc 1 92 0
	ldr	r2, [fp, #-24]
	ldr	r3, [fp, #-12]
	add	r3, r2, r3
	add	r3, r3, #62
	ldrb	r2, [r3]	@ zero_extendqisi2
	ldr	r3, [fp, #-32]
	ldrb	r3, [r3, #12]	@ zero_extendqisi2
	cmp	r2, r3
	beq	.L30
	.loc 1 93 0
	ldr	r3, [fp, #-32]
	ldr	r2, [r3, #8]
	ldr	r3, [fp, #-24]
	str	r2, [r3, #36]
	.loc 1 94 0
	ldr	r3, [fp, #-32]
	ldrb	r3, [r3, #12]	@ zero_extendqisi2
	cmp	r3, #83
	bne	.L27
	.loc 1 94 0 is_stmt 0 discriminator 1
	mov	r2, #33
	b	.L28
.L27:
	.loc 1 94 0 discriminator 2
	mov	r2, #34
.L28:
	.loc 1 94 0 discriminator 4
	ldr	r3, [fp, #-24]
	str	r2, [r3, #40]
	.loc 1 95 0 is_stmt 1 discriminator 4
	mov	r2, #4
	ldr	r3, .L31+4
	ldr	r3, [r1, r3]
	mov	r1, r3
	mov	r0, #0
	bl	CreateSize(PLT)
	str	r0, [fp, #-16]
	.loc 1 96 0 discriminator 4
	ldr	r3, [fp, #-24]
	add	r1, r3, #36
	mov	r3, #0
	str	r3, [sp]
	mov	r3, #0
	mov	r2, #16
	ldr	r0, [fp, #-16]
	bl	Send(PLT)
	.loc 1 97 0 discriminator 4
	ldr	r3, [fp, #-12]
	and	r2, r3, #255
	ldr	r3, [fp, #-24]
	strb	r2, [r3, #83]
	.loc 1 98 0 discriminator 4
	ldr	r3, [fp, #-32]
	ldrb	r2, [r3, #12]	@ zero_extendqisi2
	ldr	r3, [fp, #-24]
	strb	r2, [r3, #84]
	.loc 1 99 0 discriminator 4
	ldr	r3, [fp, #-24]
	ldr	r0, [r3, #100]
	ldr	r3, [fp, #-24]
	add	r1, r3, #83
	mov	r3, #0
	str	r3, [sp]
	mov	r3, #0
	mov	r2, #2
	bl	Send(PLT)
	.loc 1 100 0 discriminator 4
	ldr	r3, [fp, #-32]
	ldrb	r1, [r3, #12]	@ zero_extendqisi2
	ldr	r2, [fp, #-24]
	ldr	r3, [fp, #-12]
	add	r3, r2, r3
	add	r3, r3, #62
	mov	r2, r1
	strb	r2, [r3]
	.loc 1 102 0 discriminator 4
	b	.L30
.L23:
	.loc 1 105 0
	ldr	r3, .L31+8
.LPIC5:
	add	r3, pc, r3
	mov	r0, r3
	bl	cputstr(PLT)
	.loc 1 106 0
	ldr	r3, [fp, #-24]
	ldr	r3, [r3, #48]
	mov	r1, #100
	mov	r0, r3
	bl	Delay(PLT)
	.loc 1 107 0
	bl	KQuit(PLT)
	.loc 1 108 0
	b	.L17
.L30:
	.loc 1 102 0
	nop
.L17:
.L29:
	.loc 1 110 0
	nop
.L9:
	.loc 1 112 0
	mov	r2, #0
	mov	r1, #0
	ldr	r0, [fp, #-28]
	bl	Reply(PLT)
	.loc 1 113 0
	nop
	sub	sp, fp, #4
	.cfi_def_cfa 13, 8
	@ sp needed
	pop	{fp, lr}
	.cfi_restore 14
	.cfi_restore 11
	.cfi_def_cfa_offset 0
	bx	lr
.L32:
	.align	2
.L31:
	.word	_GLOBAL_OFFSET_TABLE_-(.LPIC4+8)
	.word	switch_coordinator(GOT)
	.word	.LC3-(.LPIC5+8)
	.cfi_endproc
.LFE1:
	.size	handle, .-handle
	.align	2
	.syntax unified
	.arm
	.fpu softvfp
	.type	server_initialize, %function
server_initialize:
.LFB2:
	.loc 1 115 0
	.cfi_startproc
	@ Function supports interworking.
	@ args = 0, pretend = 0, frame = 8
	@ frame_needed = 1, uses_anonymous_args = 0
	push	{fp, lr}
	.cfi_def_cfa_offset 8
	.cfi_offset 11, -8
	.cfi_offset 14, -4
	add	fp, sp, #4
	.cfi_def_cfa 11, 4
	sub	sp, sp, #8
	str	r0, [fp, #-8]
	.loc 1 115 0
	ldr	r3, [fp, #-8]
	mov	r0, r3
	bl	initialize(PLT)
	nop
	sub	sp, fp, #4
	.cfi_def_cfa 13, 8
	@ sp needed
	pop	{fp, lr}
	.cfi_restore 14
	.cfi_restore 11
	.cfi_def_cfa_offset 0
	bx	lr
	.cfi_endproc
.LFE2:
	.size	server_initialize, .-server_initialize
	.align	2
	.syntax unified
	.arm
	.fpu softvfp
	.type	server_work, %function
server_work:
.LFB3:
	.loc 1 115 0
	.cfi_startproc
	@ Function supports interworking.
	@ args = 0, pretend = 0, frame = 16
	@ frame_needed = 1, uses_anonymous_args = 0
	push	{fp, lr}
	.cfi_def_cfa_offset 8
	.cfi_offset 11, -8
	.cfi_offset 14, -4
	add	fp, sp, #4
	.cfi_def_cfa 11, 4
	sub	sp, sp, #16
	str	r0, [fp, #-16]
	.loc 1 115 0
	ldr	r3, [fp, #-16]
	add	r1, r3, #108
	sub	r3, fp, #12
	mov	r2, #16
	mov	r0, r3
	bl	Receive(PLT)
	str	r0, [fp, #-8]
	ldr	r0, [fp, #-16]
	ldr	r1, [fp, #-12]
	ldr	r3, [fp, #-16]
	add	r2, r3, #108
	ldr	r3, [fp, #-8]
	bl	handle(PLT)
	nop
	sub	sp, fp, #4
	.cfi_def_cfa 13, 8
	@ sp needed
	pop	{fp, lr}
	.cfi_restore 14
	.cfi_restore 11
	.cfi_def_cfa_offset 0
	bx	lr
	.cfi_endproc
.LFE3:
	.size	server_work, .-server_work
	.section	.rodata
	.align	2
.LC4:
	.ascii	"A0_model\000"
	.align	2
.LC5:
	.ascii	"Service %s created with tid %d.\012\015\000"
	.text
	.align	2
	.global	A0_model
	.syntax unified
	.arm
	.fpu softvfp
	.type	A0_model, %function
A0_model:
.LFB4:
	.loc 1 115 0
	.cfi_startproc
	@ Function supports interworking.
	@ args = 0, pretend = 0, frame = 128
	@ frame_needed = 1, uses_anonymous_args = 0
	push	{fp, lr}
	.cfi_def_cfa_offset 8
	.cfi_offset 11, -8
	.cfi_offset 14, -4
	add	fp, sp, #4
	.cfi_def_cfa 11, 4
	sub	sp, sp, #128
	.loc 1 115 0
	bl	Service(PLT)
	bl	MyTid(PLT)
	mov	r3, r0
	mov	r2, r3
	ldr	r3, .L37
.LPIC6:
	add	r3, pc, r3
	mov	r1, r3
	ldr	r3, .L37+4
.LPIC7:
	add	r3, pc, r3
	mov	r0, r3
	bl	tfp_dprintf(PLT)
	sub	r3, fp, #128
	mov	r0, r3
	bl	server_initialize(PLT)
.L36:
	.loc 1 115 0 is_stmt 0 discriminator 2
	sub	r3, fp, #128
	mov	r0, r3
	bl	server_work(PLT)
	b	.L36
.L38:
	.align	2
.L37:
	.word	.LC4-(.LPIC6+8)
	.word	.LC5-(.LPIC7+8)
	.cfi_endproc
.LFE4:
	.size	A0_model, .-A0_model
.Letext0:
	.file 2 "src/syscall.h"
	.file 3 "src/tasks/A0/A0_model.h"
	.file 4 "src/tasks/A0/marklin_view.h"