	.cpu arm920t
	.eabi_attribute 20, 1
	.eabi_attribute 21, 1
	.eabi_attribute 23, 3
	.eabi_attribute 24, 1
	.eabi_attribute 25, 1
	.eabi_attribute 26, 1
	.eabi_attribute 30, 6
	.eabi_attribute 34, 0
	.eabi_attribute 18, 4
	.file	"marklin_view.c"
	.text
.Ltext0:
	.cfi_sections	.debug_frame
	.align	2
	.global	reverse_coordinator
	.syntax unified
	.arm
	.fpu softvfp
	.type	reverse_coordinator, %function
reverse_coordinator:
.LFB0:
	.file 1 "src/tasks/A0/marklin_view.c"
	.loc 1 12 0
	.cfi_startproc
	@ Function supports interworking.
	@ args = 0, pretend = 0, frame = 24
	@ frame_needed = 1, uses_anonymous_args = 0
	push	{fp, lr}
	.cfi_def_cfa_offset 8
	.cfi_offset 11, -8
	.cfi_offset 14, -4
	add	fp, sp, #4
	.cfi_def_cfa 11, 4
	sub	sp, sp, #24
	.loc 1 16 0
	sub	r1, fp, #24
	sub	r3, fp, #8
	mov	r2, #16
	mov	r0, r3
	bl	Receive(PLT)
	.loc 1 17 0
	ldr	r3, [fp, #-8]
	mov	r2, #0
	mov	r1, #0
	mov	r0, r3
	bl	Reply(PLT)
	.loc 1 20 0
	ldr	r3, [fp, #-20]
	cmp	r3, #15
	bgt	.L2
	.loc 1 20 0 is_stmt 0 discriminator 1
	mov	r3, #0
	b	.L3
.L2:
	.loc 1 20 0 discriminator 2
	mov	r3, #16
.L3:
	.loc 1 20 0 discriminator 4
	strb	r3, [fp, #-28]
	.loc 1 21 0 is_stmt 1 discriminator 4
	ldr	r3, [fp, #-24]
	and	r3, r3, #255
	strb	r3, [fp, #-27]
	.loc 1 22 0 discriminator 4
	mov	r3, #0
	strb	r3, [fp, #-26]
	.loc 1 23 0 discriminator 4
	ldr	r3, [fp, #-16]
	sub	r2, fp, #28
	mov	r1, #1
	mov	r0, r3
	bl	Putstr(PLT)
	.loc 1 24 0 discriminator 4
	ldr	r3, [fp, #-12]
	mov	r1, #300
	mov	r0, r3
	bl	Delay(PLT)
	.loc 1 25 0 discriminator 4
	mov	r3, #15
	strb	r3, [fp, #-28]
	.loc 1 26 0 discriminator 4
	ldr	r3, [fp, #-16]
	sub	r2, fp, #28
	mov	r1, #1
	mov	r0, r3
	bl	Putstr(PLT)
	.loc 1 27 0 discriminator 4
	ldr	r3, [fp, #-12]
	mov	r1, #5
	mov	r0, r3
	bl	Delay(PLT)
	.loc 1 28 0 discriminator 4
	ldr	r3, [fp, #-20]
	and	r3, r3, #255
	strb	r3, [fp, #-28]
	.loc 1 29 0 discriminator 4
	ldr	r3, [fp, #-16]
	sub	r2, fp, #28
	mov	r1, #1
	mov	r0, r3
	bl	Putstr(PLT)
	.loc 1 30 0 discriminator 4
	bl	Exit(PLT)
	.loc 1 31 0 discriminator 4
	nop
	sub	sp, fp, #4
	.cfi_def_cfa 13, 8
	@ sp needed
	pop	{fp, lr}
	.cfi_restore 14
	.cfi_restore 11
	.cfi_def_cfa_offset 0
	bx	lr
	.cfi_endproc
.LFE0:
	.size	reverse_coordinator, .-reverse_coordinator
	.section	.rodata
	.align	2
.LC0:
	.ascii	"TOUT\000"
	.align	2
.LC1:
	.ascii	"CLOCK\000"
	.text
	.align	2
	.global	train_state_view
	.syntax unified
	.arm
	.fpu softvfp
	.type	train_state_view, %function
train_state_view:
.LFB1:
	.loc 1 33 0
	.cfi_startproc
	@ Function supports interworking.
	@ args = 0, pretend = 0, frame = 376
	@ frame_needed = 1, uses_anonymous_args = 0
	push	{r4, fp, lr}
	.cfi_def_cfa_offset 12
	.cfi_offset 4, -12
	.cfi_offset 11, -8
	.cfi_offset 14, -4
	add	fp, sp, #8
	.cfi_def_cfa 11, 4
	sub	sp, sp, #388
	ldr	r4, .L12
.LPIC2:
	add	r4, pc, r4
	.loc 1 39 0
	ldr	r3, .L12+4
.LPIC0:
	add	r3, pc, r3
	mov	r0, r3
	bl	WhoIs(PLT)
	str	r0, [fp, #-16]
	.loc 1 40 0
	ldr	r3, .L12+8
.LPIC1:
	add	r3, pc, r3
	mov	r0, r3
	bl	WhoIs(PLT)
	str	r0, [fp, #-20]
	.loc 1 41 0
	ldr	r3, [fp, #-16]
	str	r3, [fp, #-48]
	.loc 1 42 0
	ldr	r3, [fp, #-20]
	str	r3, [fp, #-44]
	.loc 1 45 0
	mov	r3, #0
	strb	r3, [fp, #-60]
	.loc 1 46 0
	mov	r3, #0
	strb	r3, [fp, #-58]
	.loc 1 49 0
	mov	r3, #1
	strb	r3, [fp, #-59]
	b	.L5
.L6:
	.loc 1 50 0 discriminator 3
	ldrb	r3, [fp, #-59]	@ zero_extendqisi2
	lsl	r3, r3, #2
	sub	r2, fp, #12
	add	r3, r2, r3
	mov	r2, #0
	str	r2, [r3, #-372]
	.loc 1 49 0 discriminator 3
	ldrb	r3, [fp, #-59]	@ zero_extendqisi2
	add	r3, r3, #1
	and	r3, r3, #255
	strb	r3, [fp, #-59]
.L5:
	.loc 1 49 0 is_stmt 0 discriminator 1
	ldrb	r3, [fp, #-59]	@ zero_extendqisi2
	cmp	r3, #80
	bls	.L6
	.loc 1 54 0 is_stmt 1
	sub	r3, fp, #28
	mov	r2, #0
	mov	r1, #0
	mov	r0, r3
	bl	Receive(PLT)
	.loc 1 55 0
	ldr	r3, [fp, #-28]
	mov	r2, #0
	mov	r1, #0
	mov	r0, r3
	bl	Reply(PLT)
.L11:
	.loc 1 58 0
	sub	r1, fp, #40
	sub	r3, fp, #28
	mov	r2, #12
	mov	r0, r3
	bl	Receive(PLT)
	.loc 1 59 0
	ldr	r3, [fp, #-28]
	mov	r2, #0
	mov	r1, #0
	mov	r0, r3
	bl	Reply(PLT)
	.loc 1 60 0
	ldrb	r3, [fp, #-40]	@ zero_extendqisi2
	cmp	r3, #1
	beq	.L8
	cmp	r3, #2
	beq	.L9
	cmp	r3, #0
	bne	.L7
	.loc 1 62 0
	ldr	r1, [fp, #-36]
	ldr	r2, [fp, #-32]
	ldr	r3, [fp, #-36]
	lsl	r3, r3, #2
	sub	r0, fp, #12
	add	r3, r0, r3
	ldr	r3, [r3, #-372]
	and	r3, r3, #16
	add	r2, r2, r3
	lsl	r3, r1, #2
	sub	r1, fp, #12
	add	r3, r1, r3
	str	r2, [r3, #-372]
	.loc 1 63 0
	ldr	r3, [fp, #-36]
	lsl	r3, r3, #2
	sub	r2, fp, #12
	add	r3, r2, r3
	ldr	r3, [r3, #-372]
	and	r2, r3, #255
	ldr	r3, [fp, #-36]
	and	r3, r3, #255
	mov	r1, r3
	mov	r0, r2
	bl	tput2(PLT)
	.loc 1 64 0
	b	.L7
.L8:
	.loc 1 67 0
	mov	r2, #4
	ldr	r3, .L12+12
	ldr	r3, [r4, r3]
	mov	r1, r3
	mov	r0, #0
	bl	CreateSize(PLT)
	str	r0, [fp, #-24]
	.loc 1 68 0
	ldr	r3, [fp, #-36]
	str	r3, [fp, #-56]
	.loc 1 69 0
	ldr	r3, [fp, #-36]
	lsl	r3, r3, #2
	sub	r2, fp, #12
	add	r3, r2, r3
	ldr	r3, [r3, #-372]
	str	r3, [fp, #-52]
	.loc 1 70 0
	sub	r1, fp, #56
	mov	r3, #0
	str	r3, [sp]
	mov	r3, #0
	mov	r2, #16
	ldr	r0, [fp, #-24]
	bl	Send(PLT)
	.loc 1 71 0
	b	.L7
.L9:
	.loc 1 74 0
	ldr	r1, [fp, #-36]
	ldr	r3, [fp, #-36]
	lsl	r3, r3, #2
	sub	r2, fp, #12
	add	r3, r2, r3
	ldr	r3, [r3, #-372]
	eor	r2, r3, #16
	lsl	r3, r1, #2
	sub	r1, fp, #12
	add	r3, r1, r3
	str	r2, [r3, #-372]
	.loc 1 75 0
	ldr	r3, [fp, #-36]
	lsl	r3, r3, #2
	sub	r2, fp, #12
	add	r3, r2, r3
	ldr	r3, [r3, #-372]
	and	r2, r3, #255
	ldr	r3, [fp, #-36]
	and	r3, r3, #255
	mov	r1, r3
	mov	r0, r2
	bl	tput2(PLT)
	.loc 1 76 0
	nop
.L7:
	.loc 1 58 0
	b	.L11
.L13:
	.align	2
.L12:
	.word	_GLOBAL_OFFSET_TABLE_-(.LPIC2+8)
	.word	.LC0-(.LPIC0+8)
	.word	.LC1-(.LPIC1+8)
	.word	reverse_coordinator(GOT)
	.cfi_endproc
.LFE1:
	.size	train_state_view, .-train_state_view
	.align	2
	.global	switch_coordinator
	.syntax unified
	.arm
	.fpu softvfp
	.type	switch_coordinator, %function
switch_coordinator:
.LFB2:
	.loc 1 81 0
	.cfi_startproc
	@ Function supports interworking.
	@ args = 0, pretend = 0, frame = 24
	@ frame_needed = 1, uses_anonymous_args = 0
	push	{fp, lr}
	.cfi_def_cfa_offset 8
	.cfi_offset 11, -8
	.cfi_offset 14, -4
	add	fp, sp, #4
	.cfi_def_cfa 11, 4
	sub	sp, sp, #24
	.loc 1 85 0
	sub	r1, fp, #24
	sub	r3, fp, #8
	mov	r2, #16
	mov	r0, r3
	bl	Receive(PLT)
	.loc 1 86 0
	ldr	r3, [fp, #-8]
	mov	r2, #0
	mov	r1, #0
	mov	r0, r3
	bl	Reply(PLT)
	.loc 1 88 0
	ldr	r3, [fp, #-20]
	and	r2, r3, #255
	ldr	r3, [fp, #-24]
	and	r3, r3, #255
	mov	r1, r3
	mov	r0, r2
	bl	tput2(PLT)
	.loc 1 89 0
	ldr	r3, [fp, #-12]
	mov	r1, #10
	mov	r0, r3
	bl	Delay(PLT)
	.loc 1 90 0
	mov	r0, #32
	bl	tputc(PLT)
	.loc 1 92 0
	bl	Exit(PLT)
	.loc 1 93 0
	nop
	sub	sp, fp, #4
	.cfi_def_cfa 13, 8
	@ sp needed
	pop	{fp, lr}
	.cfi_restore 14
	.cfi_restore 11
	.cfi_def_cfa_offset 0
	bx	lr
	.cfi_endproc
.LFE2:
	.size	switch_coordinator, .-switch_coordinator
.Letext0:
	.file 2 "src/syscall.h"
	.file 3 "src/tasks/A0/marklin_view.h"